

Microchip MPLAB XC8 Assembler V2.41 build 20230208172133 
                                                                                               Thu Dec 14 22:07:53 2023

Microchip MPLAB XC8 C Compiler v2.41 (Free license) build 20230208172133 Og1 
     1                           	processor	18F46K20
     2                           	fnconf	rparam,??,?,0
     3                           	pagewidth 120
     4                           	opt	flic
     5                           	psect	smallconst,global,reloc=2,class=SMALLCONST,delta=1,noexec
     6                           	psect	cinit,global,reloc=2,class=CODE,delta=1
     7                           	psect	bssCOMRAM,global,class=COMRAM,space=1,delta=1,lowdata,noexec
     8                           	psect	cstackBANK0,global,class=BANK0,space=1,delta=1,lowdata,noexec
     9                           	psect	cstackCOMRAM,global,class=COMRAM,space=1,delta=1,lowdata,noexec
    10                           	psect	text0,global,reloc=2,class=CODE,delta=1
    11                           	psect	text1,global,reloc=2,class=CODE,delta=1
    12                           	psect	text2,global,reloc=2,class=CODE,delta=1
    13                           	psect	text3,global,reloc=2,class=CODE,delta=1
    14                           	psect	text4,global,reloc=2,class=CODE,delta=1
    15                           	psect	text5,global,reloc=2,class=CODE,delta=1
    16                           	psect	text6,global,reloc=2,class=CODE,delta=1
    17                           	psect	text7,global,reloc=2,class=CODE,delta=1
    18                           	psect	text8,global,reloc=2,class=CODE,delta=1,inline
    19                           	psect	text9,global,reloc=2,class=CODE,delta=1
    20                           	psect	text10,global,reloc=2,class=CODE,delta=1
    21                           	psect	text11,global,reloc=2,class=CODE,delta=1
    22                           	psect	text12,global,reloc=2,class=CODE,delta=1
    23                           	psect	text13,global,reloc=2,class=CODE,delta=1
    24                           	psect	text14,global,reloc=2,class=CODE,delta=1
    25                           	psect	text15,global,reloc=2,class=CODE,delta=1
    26                           	psect	text16,global,reloc=2,class=CODE,delta=1
    27                           	psect	text17,global,reloc=2,class=CODE,delta=1,inline
    28                           	psect	text18,global,reloc=2,class=CODE,delta=1
    29                           	psect	intcode,global,reloc=2,class=CODE,delta=1
    30                           	psect	text20,global,reloc=2,class=CODE,delta=1
    31                           	psect	text21,global,reloc=2,class=CODE,delta=1
    32                           	psect	text22,global,reloc=2,class=CODE,delta=1
    33                           	psect	text23,global,reloc=2,class=CODE,delta=1
    34                           	psect	text24,global,reloc=2,class=CODE,delta=1
    35                           	psect	text25,global,reloc=2,class=CODE,delta=1
    36                           	psect	text26,global,reloc=2,class=CODE,delta=1
    37                           	psect	text27,global,reloc=2,class=CODE,delta=1
    38                           	psect	text28,global,reloc=2,class=CODE,delta=1
    39                           	psect	text29,global,reloc=2,class=CODE,delta=1
    40                           	psect	text30,global,reloc=2,class=CODE,delta=1
    41                           	psect	text31,global,reloc=2,class=CODE,delta=1
    42                           	psect	text32,global,reloc=2,class=CODE,delta=1
    43                           	psect	text33,global,reloc=2,class=CODE,delta=1
    44                           	psect	text34,global,reloc=2,class=CODE,delta=1
    45                           	psect	text35,global,reloc=2,class=CODE,delta=1
    46                           	psect	text36,global,reloc=2,class=CODE,delta=1,inline
    47                           	psect	text37,global,reloc=2,class=CODE,delta=1
    48                           	psect	text38,global,reloc=2,class=CODE,delta=1,inline
    49                           	psect	text39,global,reloc=2,class=CODE,delta=1,inline
    50                           	psect	text40,global,reloc=2,class=CODE,delta=1,inline
    51                           	psect	text41,global,reloc=2,class=CODE,delta=1
    52                           	psect	text42,global,reloc=2,class=CODE,delta=1
    53                           	psect	text43,global,reloc=2,class=CODE,delta=1,inline
    54                           	psect	text44,global,reloc=2,class=CODE,delta=1,inline
    55                           	psect	text45,global,reloc=2,class=CODE,delta=1
    56                           	psect	text46,global,reloc=2,class=CODE,delta=1,inline
    57                           	psect	text47,global,reloc=2,class=CODE,delta=1,inline
    58                           	psect	text48,global,reloc=2,class=CODE,delta=1,inline
    59                           	psect	text49,global,reloc=2,class=CODE,delta=1,inline
    60                           	psect	text50,global,reloc=2,class=CODE,delta=1
    61                           	psect	intsave_regs,global,class=BIGRAM,space=1,delta=1,noexec
    62                           	psect	text51,global,reloc=2,class=CODE,delta=1
    63                           	psect	rparam,global,class=COMRAM,space=1,delta=1,noexec
    64                           	psect	temp,global,ovrld,common,class=COMRAM,space=1,delta=1
    65                           	psect	config,global,abs,ovrld,class=CONFIG,space=4,delta=1,noexec
    66   000000                     
    67                           ; Generated 21/07/2023 GMT
    68                           ; 
    69                           ; Copyright © 2023, Microchip Technology Inc. and its subsidiaries ("Microchip")
    70                           ; All rights reserved.
    71                           ; 
    72                           ; This software is developed by Microchip Technology Inc. and its subsidiaries ("Microch
      +                          ip").
    73                           ; 
    74                           ; Redistribution and use in source and binary forms, with or without modification, are
    75                           ; permitted provided that the following conditions are met:
    76                           ; 
    77                           ;     1. Redistributions of source code must retain the above copyright notice, this lis
      +                          t of
    78                           ;        conditions and the following disclaimer.
    79                           ; 
    80                           ;     2. Redistributions in binary form must reproduce the above copyright notice, this 
      +                          list
    81                           ;        of conditions and the following disclaimer in the documentation and/or other
    82                           ;        materials provided with the distribution. Publication is not required when
    83                           ;        this file is used in an embedded application.
    84                           ; 
    85                           ;     3. Microchip's name may not be used to endorse or promote products derived from th
      +                          is
    86                           ;        software without specific prior written permission.
    87                           ; 
    88                           ; THIS SOFTWARE IS PROVIDED BY MICROCHIP "AS IS" AND ANY EXPRESS OR IMPLIED WARRANTIES,
    89                           ; INCLUDING, BUT NOT LIMITED TO, THE IMPLIED WARRANTIES OF MERCHANTABILITY AND FITNESS F
      +                          OR
    90                           ; PURPOSE ARE DISCLAIMED.  IN NO EVENT SHALL MICROCHIP BE LIABLE FOR ANY DIRECT, INDIREC
      +                          T,
    91                           ; INCIDENTAL, SPECIAL, EXEMPLARY, OR CONSEQUENTIAL DAMAGES (INCLUDING BUT NOT LIMITED TO
    92                           ; PROCUREMENT OF SUBSTITUTE GOODS OR SERVICES; LOSS OF USE, DATA OR PROFITS; OR BUSINESS
    93                           ; INTERRUPTION) HOWSOEVER CAUSED AND ON ANY THEORY OF LIABILITY, WHETHER IN CONTRACT, ST
      +                          RICT
    94                           ; LIABILITY, OR TORT (INCLUDING NEGLIGENCE OR OTHERWISE) ARISING IN ANY WAY OUT OF THE U
      +                          SE OF
    95                           ; THIS SOFTWARE, EVEN IF ADVISED OF THE POSSIBILITY OF SUCH DAMAGE.
    96                           ; 
    97                           ; 
    98                           ; Code-generator required, PIC18F46K20 Definitions
    99                           ; 
   100                           ; SFR Addresses
   101   000000                     
   102 ;; Function _INT0_DefaultInterruptHandler is unused but had its address taken
   103   000000                     
   104 ;; Function _INT1_DefaultInterruptHandler is unused but had its address taken
   105   000000                     
   106 ;; Function _INT2_DefaultInterruptHandler is unused but had its address taken
   107   000000                     
   108 ;; Function _EUSART_Deinitialize is unused but had its address taken
   109   000000                     
   110 ;; Function _EUSART_TransmitEnable is unused but had its address taken
   111   000000                     
   112 ;; Function _EUSART_TransmitDisable is unused but had its address taken
   113   000000                     
   114 ;; Function _EUSART_AutoBaudSet is unused but had its address taken
   115   000000                     
   116 ;; Function _EUSART_AutoBaudQuery is unused but had its address taken
   117   000000                     
   118 ;; Function _EUSART_IsRxReady is unused but had its address taken
   119   000000                     
   120 ;; Function _EUSART_IsTxReady is unused but had its address taken
   121   000000                     
   122 ;; Function _EUSART_IsTxDone is unused but had its address taken
   123   000000                     
   124 ;; Function _EUSART_ErrorGet is unused but had its address taken
   125   000000                     
   126 ;; Function _EUSART_Read is unused but had its address taken
   127   000000                     
   128 ;; Function _EUSART_Write is unused but had its address taken
   129   000000                     
   130 ;; Function _EUSART_DefaultFramingErrorCallback is unused but had its address taken
   131   000000                     
   132 ;; Function _EUSART_DefaultOverrunErrorCallback is unused but had its address taken
   133   000000                     
   134 ;; Function _I2C1_Deinitialize is unused but had its address taken
   135   000000                     
   136 ;; Function _I2C1_Write is unused but had its address taken
   137   000000                     
   138 ;; Function _I2C1_WriteRead is unused but had its address taken
   139   000000                     
   140 ;; Function _I2C1_ErrorGet is unused but had its address taken
   141   000000                     
   142                           	psect	smallconst
   143   001000                     __psmallconst:
   144                           	callstack 0
   145   001000  00                 	db	0
   146   001001                     _UART1:
   147                           	callstack 0
   148   001001  74                 	db	low _EUSART_Initialize
   149   001002  13                 	db	high _EUSART_Initialize
   150   001003  00                 	db	0
   151   001004  00                 	db	0
   152   001005  00                 	db	0
   153   001006  00                 	db	0
   154   001007  00                 	db	0
   155   001008  00                 	db	0
   156   001009  00                 	db	0
   157   00100A  00                 	db	0
   158   00100B  00                 	db	0
   159   00100C  00                 	db	0
   160   00100D  00                 	db	0
   161   00100E  00                 	db	0
   162   00100F  00                 	db	0
   163   001010  00                 	db	0
   164   001011  00                 	db	0
   165   001012  00                 	db	0
   166   001013  00                 	db	0
   167   001014  00                 	db	0
   168   001015  00                 	db	0
   169   001016  00                 	db	0
   170   001017  00                 	db	0
   171   001018  00                 	db	0
   172   001019  00                 	db	0
   173   00101A  00                 	db	0
   174   00101B  00                 	db	0
   175   00101C  00                 	db	0
   176   00101D  00                 	db	0
   177   00101E  00                 	db	0
   178   00101F  00                 	db	0
   179   001020  00                 	db	0
   180   001021  00                 	db	0
   181   001022  00                 	db	0
   182   001023  00                 	db	0
   183   001024  00                 	db	0
   184   001025  00                 	db	0
   185   001026  00                 	db	0
   186   001027  00                 	db	0
   187   001028  00                 	db	0
   188   001029  E4                 	db	low _EUSART_FramingErrorCallbackRegister
   189   00102A  14                 	db	high _EUSART_FramingErrorCallbackRegister
   190   00102B  C8                 	db	low _EUSART_OverrunErrorCallbackRegister
   191   00102C  14                 	db	high _EUSART_OverrunErrorCallbackRegister
   192   00102D  00                 	db	0
   193   00102E  00                 	db	0
   194   00102F  00                 	db	0
   195   001030  00                 	db	0
   196   001031                     __end_of_UART1:
   197                           	callstack 0
   198   001031                     _I2C1_Host:
   199                           	callstack 0
   200   001031  66                 	db	low _I2C1_Initialize
   201   001032  14                 	db	high _I2C1_Initialize
   202   001033  00                 	db	0
   203   001034  00                 	db	0
   204   001035  00                 	db	0
   205   001036  00                 	db	0
   206   001037  1C                 	db	low _I2C1_Read
   207   001038  13                 	db	high _I2C1_Read
   208   001039  00                 	db	0
   209   00103A  00                 	db	0
   210   00103B  00                 	db	0
   211   00103C  00                 	db	0
   212   00103D  00                 	db	0
   213   00103E  00                 	db	0
   214   00103F  3C                 	db	low _I2C1_IsBusy
   215   001040  14                 	db	high _I2C1_IsBusy
   216   001041  AC                 	db	low _I2C1_CallbackRegister
   217   001042  14                 	db	high _I2C1_CallbackRegister
   218   001043  00                 	db	0
   219   001044  00                 	db	0
   220   001045                     __end_of_I2C1_Host:
   221                           	callstack 0
   222   001045                     _i2c1_eventTable:
   223                           	callstack 0
   224   001045  F2                 	db	low _I2C1_EVENT_IDLE
   225   001046  15                 	db	high _I2C1_EVENT_IDLE
   226   001047  A0                 	db	low _I2C1_EVENT_SEND_RD_ADDR
   227   001048  15                 	db	high _I2C1_EVENT_SEND_RD_ADDR
   228   001049  94                 	db	low _I2C1_EVENT_SEND_WR_ADDR
   229   00104A  15                 	db	high _I2C1_EVENT_SEND_WR_ADDR
   230   00104B  C0                 	db	low _I2C1_EVENT_TX
   231   00104C  12                 	db	high _I2C1_EVENT_TX
   232   00104D  EA                 	db	low _I2C1_EVENT_RX
   233   00104E  11                 	db	high _I2C1_EVENT_RX
   234   00104F  E8                 	db	low _I2C1_EVENT_NACK
   235   001050  15                 	db	high _I2C1_EVENT_NACK
   236   001051  DE                 	db	low _I2C1_EVENT_ERROR
   237   001052  15                 	db	high _I2C1_EVENT_ERROR
   238   001053  88                 	db	low _I2C1_EVENT_STOP
   239   001054  15                 	db	high _I2C1_EVENT_STOP
   240   001055  7C                 	db	low _I2C1_EVENT_RESET
   241   001056  15                 	db	high _I2C1_EVENT_RESET
   242   001057                     __end_of_i2c1_eventTable:
   243                           	callstack 0
   244   000000                     _TXREG	set	4013
   245   000000                     _RCREG	set	4014
   246   000000                     _SPBRG	set	4015
   247   000000                     _TXSTA	set	4012
   248   000000                     _SSPCON2bits	set	4037
   249   000000                     _SSPSTATbits	set	4039
   250   000000                     _SSPCON1bits	set	4038
   251   000000                     _BAUDCONbits	set	4024
   252   000000                     _TXSTAbits	set	4012
   253   000000                     _RCSTAbits	set	4011
   254   000000                     _WPUB	set	3964
   255   000000                     _ANSELH	set	3967
   256   000000                     _LATA	set	3977
   257   000000                     _TRISA	set	3986
   258   000000                     _LATE	set	3981
   259   000000                     _LATD	set	3980
   260   000000                     _LATC	set	3979
   261   000000                     _LATB	set	3978
   262   000000                     _OSCTUNE	set	3995
   263   000000                     _PIE1bits	set	3997
   264   000000                     _PIE2bits	set	4000
   265   000000                     _RCONbits	set	4048
   266   000000                     _INTCONbits	set	4082
   267   000000                     _TRISE	set	3990
   268   000000                     _TRISD	set	3989
   269   000000                     _TRISC	set	3988
   270   000000                     _TRISB	set	3987
   271   000000                     _IOCB	set	3965
   272   000000                     _OSCCON	set	4051
   273   000000                     _INTCON3bits	set	4080
   274   000000                     _INTCON2bits	set	4081
   275   000000                     _RCSTA	set	4011
   276   000000                     _BAUDCON	set	4024
   277   000000                     _PIR2bits	set	4001
   278   000000                     _PIR1bits	set	3998
   279   000000                     _SSPCON2	set	4037
   280   000000                     _SSPCON1	set	4038
   281   000000                     _SSPSTAT	set	4039
   282   000000                     _SPBRGH	set	4016
   283   000000                     _SSPBUF	set	4041
   284   000000                     _SSPADD	set	4040
   285   001057  00                 	db	0	; dummy byte at the end
   286   000000                     
   287                           ; #config settings
   288                           
   289                           	psect	cinit
   290   001500                     __pcinit:
   291                           	callstack 0
   292   001500                     start_initialization:
   293                           	callstack 0
   294   001500                     __initialization:
   295                           	callstack 0
   296                           
   297                           ; Clear objects allocated to COMRAM (52 bytes)
   298   001500  EE00  F001         	lfsr	0,__pbssCOMRAM
   299   001504  0E34               	movlw	52
   300   001506                     clear_0:
   301   001506  6AEE               	clrf	postinc0,c
   302   001508  06E8               	decf	wreg,f,c
   303   00150A  E1FD               	bnz	clear_0
   304   00150C                     end_of_initialization:
   305                           	callstack 0
   306   00150C                     __end_of__initialization:
   307                           	callstack 0
   308   00150C  904C               	bcf	int$flags,0,c	;clear compiler interrupt flag (level 1)
   309   00150E  924C               	bcf	int$flags,1,c	;clear compiler interrupt flag (level 2)
   310   001510  0100               	movlb	0
   311   001512  EF45  F00A         	goto	_main	;jump to C main() function
   312                           
   313                           	psect	bssCOMRAM
   314   000001                     __pbssCOMRAM:
   315                           	callstack 0
   316   000001                     _i2c1Status:
   317                           	callstack 0
   318   000001                     	ds	14
   319   00000F                     _Real_TimeDs1307:
   320                           	callstack 0
   321   00000F                     	ds	12
   322   00001B                     _Real_TimeDs1307_data:
   323                           	callstack 0
   324   00001B                     	ds	12
   325   000027                     _I2C1_Callback:
   326                           	callstack 0
   327   000027                     	ds	2
   328   000029                     _EUSART_OverrunErrorHandler:
   329                           	callstack 0
   330   000029                     	ds	2
   331   00002B                     _EUSART_FramingErrorHandler:
   332                           	callstack 0
   333   00002B                     	ds	2
   334   00002D                     _eusartRxLastError:
   335                           	callstack 0
   336   00002D                     	ds	2
   337   00002F                     _INT2_InterruptHandler:
   338                           	callstack 0
   339   00002F                     	ds	2
   340   000031                     _INT1_InterruptHandler:
   341                           	callstack 0
   342   000031                     	ds	2
   343   000033                     _INT0_InterruptHandler:
   344                           	callstack 0
   345   000033                     	ds	2
   346                           
   347                           	psect	cstackBANK0
   348   000060                     __pcstackBANK0:
   349                           	callstack 0
   350   000060                     ?_RealTimeDS1307_Gen_Data:
   351                           	callstack 0
   352                           
   353                           ; 12 bytes @ 0x0
   354   000060                     	ds	12
   355                           
   356                           	psect	cstackCOMRAM
   357   000035                     __pcstackCOMRAM:
   358                           	callstack 0
   359   000035                     I2C1_EVENT_RX@retEventState:
   360                           	callstack 0
   361   000035                     I2C1_EVENT_NACK@retEventState:
   362                           	callstack 0
   363   000035                     I2C1_EVENT_ERROR@retEventState:
   364                           	callstack 0
   365   000035                     I2C1_DataTransmit@data:
   366                           	callstack 0
   367                           
   368                           ; 1 bytes @ 0x0
   369   000035                     	ds	1
   370   000036                     I2C1_EVENT_TX@retEventState:
   371                           	callstack 0
   372                           
   373                           ; 1 bytes @ 0x1
   374   000036                     	ds	1
   375   000037                     ??_I2C1_EventHandler:
   376   000037                     ??_I2C1_ErrorEventHandler:
   377                           
   378                           ; 1 bytes @ 0x2
   379   000037                     	ds	2
   380   000039                     ??_INTERRUPT_InterruptManager:
   381                           
   382                           ; 1 bytes @ 0x4
   383   000039                     	ds	10
   384   000043                     _I2C1_IsBusy$1709:
   385                           	callstack 0
   386   000043                     INT0_SetInterruptHandler@InterruptHandler:
   387                           	callstack 0
   388   000043                     INT1_SetInterruptHandler@InterruptHandler:
   389                           	callstack 0
   390   000043                     INT2_SetInterruptHandler@InterruptHandler:
   391                           	callstack 0
   392   000043                     EUSART_FramingErrorCallbackRegister@callbackHandler:
   393                           	callstack 0
   394   000043                     EUSART_OverrunErrorCallbackRegister@callbackHandler:
   395                           	callstack 0
   396   000043                     I2C1_CallbackRegister@callbackHandler:
   397                           	callstack 0
   398                           
   399                           ; 2 bytes @ 0xE
   400   000043                     	ds	1
   401   000044                     I2C1_Read@address:
   402                           	callstack 0
   403                           
   404                           ; 2 bytes @ 0xF
   405   000044                     	ds	1
   406   000045                     
   407                           ; 1 bytes @ 0x10
   408   000045                     	ds	1
   409   000046                     I2C1_Read@data:
   410                           	callstack 0
   411                           
   412                           ; 2 bytes @ 0x11
   413   000046                     	ds	2
   414   000048                     I2C1_Read@dataLength:
   415                           	callstack 0
   416                           
   417                           ; 2 bytes @ 0x13
   418   000048                     	ds	2
   419   00004A                     I2C1_Read@retStatus:
   420                           	callstack 0
   421                           
   422                           ; 1 bytes @ 0x15
   423   00004A                     	ds	1
   424   00004B                     ??_RealTimeDS1307_Gen_Data:
   425                           
   426                           ; 1 bytes @ 0x16
   427   00004B                     	ds	1
   428   00004C                     
   429                           ; 1 bytes @ 0x17
   430 ;;
   431 ;;Main: autosize = 0, tempsize = 0, incstack = 0, save=0
   432 ;;
   433 ;; *************** function _main *****************
   434 ;; Defined at:
   435 ;;		line 39 in file "main.c"
   436 ;; Parameters:    Size  Location     Type
   437 ;;		None
   438 ;; Auto vars:     Size  Location     Type
   439 ;;		None
   440 ;; Return value:  Size  Location     Type
   441 ;;                  2  160[None  ] int 
   442 ;; Registers used:
   443 ;;		wreg, fsr0l, fsr0h, fsr2l, fsr2h, status,2, status,0, cstack
   444 ;; Tracked objects:
   445 ;;		On entry : 0/0
   446 ;;		On exit  : 0/0
   447 ;;		Unchanged: 0/0
   448 ;; Data sizes:     COMRAM   BANK0   BANK1   BANK2   BANK3   BANK4   BANK5   BANK6   BANK7   BANK8   BANK9  BANK10  BANK1
      +1  BANK12  BANK13  BANK14  BANK15
   449 ;;      Params:         0       0       0       0       0       0       0       0       0       0       0       0       
      +0       0       0       0       0
   450 ;;      Locals:         0       0       0       0       0       0       0       0       0       0       0       0       
      +0       0       0       0       0
   451 ;;      Temps:          0       0       0       0       0       0       0       0       0       0       0       0       
      +0       0       0       0       0
   452 ;;      Totals:         0       0       0       0       0       0       0       0       0       0       0       0       
      +0       0       0       0       0
   453 ;;Total ram usage:        0 bytes
   454 ;; Hardware stack levels required when called: 11
   455 ;; This function calls:
   456 ;;		_RealTimeDS1307_Gen_Data
   457 ;;		_SYSTEM_Initialize
   458 ;; This function is called by:
   459 ;;		Startup code after reset
   460 ;; This function uses a non-reentrant model
   461 ;;
   462                           
   463                           	psect	text0
   464   00148A                     __ptext0:
   465                           	callstack 0
   466   00148A                     _main:
   467                           	callstack 20
   468   00148A                     
   469                           ;main.c: 41:     SYSTEM_Initialize();
   470   00148A  EC8B  F00A         	call	_SYSTEM_Initialize	;wreg free
   471   00148E                     
   472                           ;main.c: 48:     (INTCONbits.GIE = 1);
   473   00148E  8EF2               	bsf	242,7,c	;volatile
   474   001490                     
   475                           ;main.c: 54:     (INTCONbits.PEIE = 1);
   476   001490  8CF2               	bsf	242,6,c	;volatile
   477   001492                     l1881:
   478                           
   479                           ;main.c: 61:     {;main.c: 62:       Real_TimeDs1307_data = RealTimeDS1307_Gen_Data();
   480   001492  EC2C  F008         	call	_RealTimeDS1307_Gen_Data	;wreg free
   481   001496  EE20  F01B         	lfsr	2,_Real_TimeDs1307_data
   482   00149A  0E0B               	movlw	11
   483   00149C                     u591:
   484   00149C  CFEB FFDB          	movff	plusw0,plusw2
   485   0014A0  06E8               	decf	wreg,f,c
   486   0014A2  E2FC               	bc	u591
   487   0014A4  EF49  F00A         	goto	l1881
   488   0014A8  EF56  F000         	goto	start
   489   0014AC                     __end_of_main:
   490                           	callstack 0
   491                           
   492 ;; *************** function _SYSTEM_Initialize *****************
   493 ;; Defined at:
   494 ;;		line 37 in file "mcc_generated_files/system/src/system.c"
   495 ;; Parameters:    Size  Location     Type
   496 ;;		None
   497 ;; Auto vars:     Size  Location     Type
   498 ;;		None
   499 ;; Return value:  Size  Location     Type
   500 ;;                  1    wreg      void 
   501 ;; Registers used:
   502 ;;		wreg, status,2, status,0, cstack
   503 ;; Tracked objects:
   504 ;;		On entry : 0/0
   505 ;;		On exit  : 0/0
   506 ;;		Unchanged: 0/0
   507 ;; Data sizes:     COMRAM   BANK0   BANK1   BANK2   BANK3   BANK4   BANK5   BANK6   BANK7   BANK8   BANK9  BANK10  BANK1
      +1  BANK12  BANK13  BANK14  BANK15
   508 ;;      Params:         0       0       0       0       0       0       0       0       0       0       0       0       
      +0       0       0       0       0
   509 ;;      Locals:         0       0       0       0       0       0       0       0       0       0       0       0       
      +0       0       0       0       0
   510 ;;      Temps:          0       0       0       0       0       0       0       0       0       0       0       0       
      +0       0       0       0       0
   511 ;;      Totals:         0       0       0       0       0       0       0       0       0       0       0       0       
      +0       0       0       0       0
   512 ;;Total ram usage:        0 bytes
   513 ;; Hardware stack levels used: 1
   514 ;; Hardware stack levels required when called: 9
   515 ;; This function calls:
   516 ;;		_CLOCK_Initialize
   517 ;;		_EUSART_Initialize
   518 ;;		_I2C1_Initialize
   519 ;;		_INTERRUPT_Initialize
   520 ;;		_PIN_MANAGER_Initialize
   521 ;; This function is called by:
   522 ;;		_main
   523 ;; This function uses a non-reentrant model
   524 ;;
   525                           
   526                           	psect	text1
   527   001516                     __ptext1:
   528                           	callstack 0
   529   001516                     _SYSTEM_Initialize:
   530                           	callstack 21
   531   001516                     
   532                           ;mcc_generated_files/system/src/system.c: 39:     CLOCK_Initialize();
   533   001516  ECE5  F00A         	call	_CLOCK_Initialize	;wreg free
   534                           
   535                           ;mcc_generated_files/system/src/system.c: 40:     PIN_MANAGER_Initialize();
   536   00151A  ECEF  F009         	call	_PIN_MANAGER_Initialize	;wreg free
   537   00151E                     
   538                           ;mcc_generated_files/system/src/system.c: 41:     EUSART_Initialize();
   539   00151E  ECBA  F009         	call	_EUSART_Initialize	;wreg free
   540   001522                     
   541                           ;mcc_generated_files/system/src/system.c: 42:     I2C1_Initialize();
   542   001522  EC33  F00A         	call	_I2C1_Initialize	;wreg free
   543   001526                     
   544                           ;mcc_generated_files/system/src/system.c: 43:     INTERRUPT_Initialize();
   545   001526  ECD5  F009         	call	_INTERRUPT_Initialize	;wreg free
   546   00152A  0012               	return		;funcret
   547   00152C                     __end_of_SYSTEM_Initialize:
   548                           	callstack 0
   549                           
   550 ;; *************** function _PIN_MANAGER_Initialize *****************
   551 ;; Defined at:
   552 ;;		line 38 in file "mcc_generated_files/system/src/pins.c"
   553 ;; Parameters:    Size  Location     Type
   554 ;;		None
   555 ;; Auto vars:     Size  Location     Type
   556 ;;		None
   557 ;; Return value:  Size  Location     Type
   558 ;;                  1    wreg      void 
   559 ;; Registers used:
   560 ;;		wreg, status,2
   561 ;; Tracked objects:
   562 ;;		On entry : 0/0
   563 ;;		On exit  : 0/0
   564 ;;		Unchanged: 0/0
   565 ;; Data sizes:     COMRAM   BANK0   BANK1   BANK2   BANK3   BANK4   BANK5   BANK6   BANK7   BANK8   BANK9  BANK10  BANK1
      +1  BANK12  BANK13  BANK14  BANK15
   566 ;;      Params:         0       0       0       0       0       0       0       0       0       0       0       0       
      +0       0       0       0       0
   567 ;;      Locals:         0       0       0       0       0       0       0       0       0       0       0       0       
      +0       0       0       0       0
   568 ;;      Temps:          0       0       0       0       0       0       0       0       0       0       0       0       
      +0       0       0       0       0
   569 ;;      Totals:         0       0       0       0       0       0       0       0       0       0       0       0       
      +0       0       0       0       0
   570 ;;Total ram usage:        0 bytes
   571 ;; Hardware stack levels used: 1
   572 ;; Hardware stack levels required when called: 7
   573 ;; This function calls:
   574 ;;		Nothing
   575 ;; This function is called by:
   576 ;;		_SYSTEM_Initialize
   577 ;; This function uses a non-reentrant model
   578 ;;
   579                           
   580                           	psect	text2
   581   0013DE                     __ptext2:
   582                           	callstack 0
   583   0013DE                     _PIN_MANAGER_Initialize:
   584                           	callstack 22
   585   0013DE                     
   586                           ;mcc_generated_files/system/src/pins.c: 43:     LATA = 0x0;
   587   0013DE  0E00               	movlw	0
   588   0013E0  6E89               	movwf	137,c	;volatile
   589                           
   590                           ;mcc_generated_files/system/src/pins.c: 44:     LATB = 0x0;
   591   0013E2  0E00               	movlw	0
   592   0013E4  6E8A               	movwf	138,c	;volatile
   593                           
   594                           ;mcc_generated_files/system/src/pins.c: 45:     LATC = 0x18;
   595   0013E6  0E18               	movlw	24
   596   0013E8  6E8B               	movwf	139,c	;volatile
   597                           
   598                           ;mcc_generated_files/system/src/pins.c: 46:     LATD = 0x0;
   599   0013EA  0E00               	movlw	0
   600   0013EC  6E8C               	movwf	140,c	;volatile
   601                           
   602                           ;mcc_generated_files/system/src/pins.c: 47:     LATE = 0x0;
   603   0013EE  0E00               	movlw	0
   604   0013F0  6E8D               	movwf	141,c	;volatile
   605                           
   606                           ;mcc_generated_files/system/src/pins.c: 52:     TRISA = 0xFC;
   607   0013F2  0EFC               	movlw	252
   608   0013F4  6E92               	movwf	146,c	;volatile
   609   0013F6                     
   610                           ;mcc_generated_files/system/src/pins.c: 53:     TRISB = 0xFF;
   611   0013F6  6893               	setf	147,c	;volatile
   612                           
   613                           ;mcc_generated_files/system/src/pins.c: 54:     TRISC = 0xBF;
   614   0013F8  0EBF               	movlw	191
   615   0013FA  6E94               	movwf	148,c	;volatile
   616   0013FC                     
   617                           ;mcc_generated_files/system/src/pins.c: 55:     TRISD = 0xFF;
   618   0013FC  6895               	setf	149,c	;volatile
   619                           
   620                           ;mcc_generated_files/system/src/pins.c: 56:     TRISE = 0x7;
   621   0013FE  0E07               	movlw	7
   622   001400  6E96               	movwf	150,c	;volatile
   623                           
   624                           ;mcc_generated_files/system/src/pins.c: 61:     ANSELH = 0x1F;
   625   001402  0E1F               	movlw	31
   626   001404  6E7F               	movwf	127,c	;volatile
   627   001406                     
   628                           ;mcc_generated_files/system/src/pins.c: 66:     WPUB = 0xFF;
   629   001406  687C               	setf	124,c	;volatile
   630                           
   631                           ;mcc_generated_files/system/src/pins.c: 90:     IOCB = 0x0;
   632   001408  0E00               	movlw	0
   633   00140A  6E7D               	movwf	125,c	;volatile
   634   00140C                     
   635                           ;mcc_generated_files/system/src/pins.c: 94:     INTCONbits.RBIE = 1;
   636   00140C  86F2               	bsf	242,3,c	;volatile
   637   00140E  0012               	return		;funcret
   638   001410                     __end_of_PIN_MANAGER_Initialize:
   639                           	callstack 0
   640                           
   641 ;; *************** function _INTERRUPT_Initialize *****************
   642 ;; Defined at:
   643 ;;		line 42 in file "mcc_generated_files/system/src/interrupt.c"
   644 ;; Parameters:    Size  Location     Type
   645 ;;		None
   646 ;; Auto vars:     Size  Location     Type
   647 ;;		None
   648 ;; Return value:  Size  Location     Type
   649 ;;                  1    wreg      void 
   650 ;; Registers used:
   651 ;;		wreg, status,2, status,0, cstack
   652 ;; Tracked objects:
   653 ;;		On entry : 0/0
   654 ;;		On exit  : 0/0
   655 ;;		Unchanged: 0/0
   656 ;; Data sizes:     COMRAM   BANK0   BANK1   BANK2   BANK3   BANK4   BANK5   BANK6   BANK7   BANK8   BANK9  BANK10  BANK1
      +1  BANK12  BANK13  BANK14  BANK15
   657 ;;      Params:         0       0       0       0       0       0       0       0       0       0       0       0       
      +0       0       0       0       0
   658 ;;      Locals:         0       0       0       0       0       0       0       0       0       0       0       0       
      +0       0       0       0       0
   659 ;;      Temps:          0       0       0       0       0       0       0       0       0       0       0       0       
      +0       0       0       0       0
   660 ;;      Totals:         0       0       0       0       0       0       0       0       0       0       0       0       
      +0       0       0       0       0
   661 ;;Total ram usage:        0 bytes
   662 ;; Hardware stack levels used: 1
   663 ;; Hardware stack levels required when called: 8
   664 ;; This function calls:
   665 ;;		_INT0_SetInterruptHandler
   666 ;;		_INT1_SetInterruptHandler
   667 ;;		_INT2_SetInterruptHandler
   668 ;; This function is called by:
   669 ;;		_SYSTEM_Initialize
   670 ;; This function uses a non-reentrant model
   671 ;;
   672                           
   673                           	psect	text3
   674   0013AA                     __ptext3:
   675                           	callstack 0
   676   0013AA                     _INTERRUPT_Initialize:
   677                           	callstack 21
   678   0013AA                     
   679                           ;mcc_generated_files/system/src/interrupt.c: 45:     RCONbits.IPEN = 0;
   680   0013AA  9ED0               	bcf	208,7,c	;volatile
   681                           
   682                           ;mcc_generated_files/system/src/interrupt.c: 49:     (INTCONbits.INT0IF = 0);
   683   0013AC  92F2               	bcf	242,1,c	;volatile
   684                           
   685                           ;mcc_generated_files/system/src/interrupt.c: 50:     (INTCON2bits.INTEDG0 = 1);
   686   0013AE  8CF1               	bsf	241,6,c	;volatile
   687   0013B0                     
   688                           ;mcc_generated_files/system/src/interrupt.c: 52:     INT0_SetInterruptHandler(INT0_Defau
      +                          ltInterruptHandler);
   689   0013B0  0E00               	movlw	0
   690   0013B2  6E43               	movwf	INT0_SetInterruptHandler@InterruptHandler^0,c
   691   0013B4  0E00               	movlw	0
   692   0013B6  6E44               	movwf	(INT0_SetInterruptHandler@InterruptHandler+1)^0,c
   693   0013B8  ECE0  F00A         	call	_INT0_SetInterruptHandler	;wreg free
   694   0013BC                     
   695                           ;mcc_generated_files/system/src/interrupt.c: 57:     (INTCON3bits.INT1IF = 0);
   696   0013BC  90F0               	bcf	240,0,c	;volatile
   697   0013BE                     
   698                           ;mcc_generated_files/system/src/interrupt.c: 58:     (INTCON2bits.INTEDG1 = 1);
   699   0013BE  8AF1               	bsf	241,5,c	;volatile
   700                           
   701                           ;mcc_generated_files/system/src/interrupt.c: 60:     INT1_SetInterruptHandler(INT1_Defau
      +                          ltInterruptHandler);
   702   0013C0  0E00               	movlw	0
   703   0013C2  6E43               	movwf	INT1_SetInterruptHandler@InterruptHandler^0,c
   704   0013C4  0E00               	movlw	0
   705   0013C6  6E44               	movwf	(INT1_SetInterruptHandler@InterruptHandler+1)^0,c
   706   0013C8  ECDB  F00A         	call	_INT1_SetInterruptHandler	;wreg free
   707   0013CC                     
   708                           ;mcc_generated_files/system/src/interrupt.c: 65:     (INTCON3bits.INT2IF = 0);
   709   0013CC  92F0               	bcf	240,1,c	;volatile
   710   0013CE                     
   711                           ;mcc_generated_files/system/src/interrupt.c: 66:     (INTCON2bits.INTEDG2 = 1);
   712   0013CE  88F1               	bsf	241,4,c	;volatile
   713                           
   714                           ;mcc_generated_files/system/src/interrupt.c: 68:     INT2_SetInterruptHandler(INT2_Defau
      +                          ltInterruptHandler);
   715   0013D0  0E00               	movlw	0
   716   0013D2  6E43               	movwf	INT2_SetInterruptHandler@InterruptHandler^0,c
   717   0013D4  0E00               	movlw	0
   718   0013D6  6E44               	movwf	(INT2_SetInterruptHandler@InterruptHandler+1)^0,c
   719   0013D8  ECD6  F00A         	call	_INT2_SetInterruptHandler	;wreg free
   720   0013DC  0012               	return		;funcret
   721   0013DE                     __end_of_INTERRUPT_Initialize:
   722                           	callstack 0
   723                           
   724 ;; *************** function _INT2_SetInterruptHandler *****************
   725 ;; Defined at:
   726 ;;		line 166 in file "mcc_generated_files/system/src/interrupt.c"
   727 ;; Parameters:    Size  Location     Type
   728 ;;  InterruptHan    2   14[COMRAM] PTR FTN()void 
   729 ;;		 -> INT2_DefaultInterruptHandler(1), 
   730 ;; Auto vars:     Size  Location     Type
   731 ;;		None
   732 ;; Return value:  Size  Location     Type
   733 ;;                  1    wreg      void 
   734 ;; Registers used:
   735 ;;		wreg, status,2, status,0
   736 ;; Tracked objects:
   737 ;;		On entry : 0/0
   738 ;;		On exit  : 0/0
   739 ;;		Unchanged: 0/0
   740 ;; Data sizes:     COMRAM   BANK0   BANK1   BANK2   BANK3   BANK4   BANK5   BANK6   BANK7   BANK8   BANK9  BANK10  BANK1
      +1  BANK12  BANK13  BANK14  BANK15
   741 ;;      Params:         2       0       0       0       0       0       0       0       0       0       0       0       
      +0       0       0       0       0
   742 ;;      Locals:         0       0       0       0       0       0       0       0       0       0       0       0       
      +0       0       0       0       0
   743 ;;      Temps:          0       0       0       0       0       0       0       0       0       0       0       0       
      +0       0       0       0       0
   744 ;;      Totals:         2       0       0       0       0       0       0       0       0       0       0       0       
      +0       0       0       0       0
   745 ;;Total ram usage:        2 bytes
   746 ;; Hardware stack levels used: 1
   747 ;; Hardware stack levels required when called: 7
   748 ;; This function calls:
   749 ;;		Nothing
   750 ;; This function is called by:
   751 ;;		_INTERRUPT_Initialize
   752 ;; This function uses a non-reentrant model
   753 ;;
   754                           
   755                           	psect	text4
   756   0015AC                     __ptext4:
   757                           	callstack 0
   758   0015AC                     _INT2_SetInterruptHandler:
   759                           	callstack 21
   760   0015AC                     
   761                           ;mcc_generated_files/system/src/interrupt.c: 167:     INT2_InterruptHandler = InterruptH
      +                          andler;
   762   0015AC  C043  F02F         	movff	INT2_SetInterruptHandler@InterruptHandler,_INT2_InterruptHandler
   763   0015B0  C044  F030         	movff	INT2_SetInterruptHandler@InterruptHandler+1,_INT2_InterruptHandler+1
   764   0015B4  0012               	return		;funcret
   765   0015B6                     __end_of_INT2_SetInterruptHandler:
   766                           	callstack 0
   767                           
   768 ;; *************** function _INT1_SetInterruptHandler *****************
   769 ;; Defined at:
   770 ;;		line 140 in file "mcc_generated_files/system/src/interrupt.c"
   771 ;; Parameters:    Size  Location     Type
   772 ;;  InterruptHan    2   14[COMRAM] PTR FTN()void 
   773 ;;		 -> INT1_DefaultInterruptHandler(1), 
   774 ;; Auto vars:     Size  Location     Type
   775 ;;		None
   776 ;; Return value:  Size  Location     Type
   777 ;;                  1    wreg      void 
   778 ;; Registers used:
   779 ;;		wreg, status,2, status,0
   780 ;; Tracked objects:
   781 ;;		On entry : 0/0
   782 ;;		On exit  : 0/0
   783 ;;		Unchanged: 0/0
   784 ;; Data sizes:     COMRAM   BANK0   BANK1   BANK2   BANK3   BANK4   BANK5   BANK6   BANK7   BANK8   BANK9  BANK10  BANK1
      +1  BANK12  BANK13  BANK14  BANK15
   785 ;;      Params:         2       0       0       0       0       0       0       0       0       0       0       0       
      +0       0       0       0       0
   786 ;;      Locals:         0       0       0       0       0       0       0       0       0       0       0       0       
      +0       0       0       0       0
   787 ;;      Temps:          0       0       0       0       0       0       0       0       0       0       0       0       
      +0       0       0       0       0
   788 ;;      Totals:         2       0       0       0       0       0       0       0       0       0       0       0       
      +0       0       0       0       0
   789 ;;Total ram usage:        2 bytes
   790 ;; Hardware stack levels used: 1
   791 ;; Hardware stack levels required when called: 7
   792 ;; This function calls:
   793 ;;		Nothing
   794 ;; This function is called by:
   795 ;;		_INTERRUPT_Initialize
   796 ;; This function uses a non-reentrant model
   797 ;;
   798                           
   799                           	psect	text5
   800   0015B6                     __ptext5:
   801                           	callstack 0
   802   0015B6                     _INT1_SetInterruptHandler:
   803                           	callstack 21
   804   0015B6                     
   805                           ;mcc_generated_files/system/src/interrupt.c: 141:     INT1_InterruptHandler = InterruptH
      +                          andler;
   806   0015B6  C043  F031         	movff	INT1_SetInterruptHandler@InterruptHandler,_INT1_InterruptHandler
   807   0015BA  C044  F032         	movff	INT1_SetInterruptHandler@InterruptHandler+1,_INT1_InterruptHandler+1
   808   0015BE  0012               	return		;funcret
   809   0015C0                     __end_of_INT1_SetInterruptHandler:
   810                           	callstack 0
   811                           
   812 ;; *************** function _INT0_SetInterruptHandler *****************
   813 ;; Defined at:
   814 ;;		line 114 in file "mcc_generated_files/system/src/interrupt.c"
   815 ;; Parameters:    Size  Location     Type
   816 ;;  InterruptHan    2   14[COMRAM] PTR FTN()void 
   817 ;;		 -> INT0_DefaultInterruptHandler(1), 
   818 ;; Auto vars:     Size  Location     Type
   819 ;;		None
   820 ;; Return value:  Size  Location     Type
   821 ;;                  1    wreg      void 
   822 ;; Registers used:
   823 ;;		wreg, status,2, status,0
   824 ;; Tracked objects:
   825 ;;		On entry : 0/0
   826 ;;		On exit  : 0/0
   827 ;;		Unchanged: 0/0
   828 ;; Data sizes:     COMRAM   BANK0   BANK1   BANK2   BANK3   BANK4   BANK5   BANK6   BANK7   BANK8   BANK9  BANK10  BANK1
      +1  BANK12  BANK13  BANK14  BANK15
   829 ;;      Params:         2       0       0       0       0       0       0       0       0       0       0       0       
      +0       0       0       0       0
   830 ;;      Locals:         0       0       0       0       0       0       0       0       0       0       0       0       
      +0       0       0       0       0
   831 ;;      Temps:          0       0       0       0       0       0       0       0       0       0       0       0       
      +0       0       0       0       0
   832 ;;      Totals:         2       0       0       0       0       0       0       0       0       0       0       0       
      +0       0       0       0       0
   833 ;;Total ram usage:        2 bytes
   834 ;; Hardware stack levels used: 1
   835 ;; Hardware stack levels required when called: 7
   836 ;; This function calls:
   837 ;;		Nothing
   838 ;; This function is called by:
   839 ;;		_INTERRUPT_Initialize
   840 ;; This function uses a non-reentrant model
   841 ;;
   842                           
   843                           	psect	text6
   844   0015C0                     __ptext6:
   845                           	callstack 0
   846   0015C0                     _INT0_SetInterruptHandler:
   847                           	callstack 21
   848   0015C0                     
   849                           ;mcc_generated_files/system/src/interrupt.c: 115:     INT0_InterruptHandler = InterruptH
      +                          andler;
   850   0015C0  C043  F033         	movff	INT0_SetInterruptHandler@InterruptHandler,_INT0_InterruptHandler
   851   0015C4  C044  F034         	movff	INT0_SetInterruptHandler@InterruptHandler+1,_INT0_InterruptHandler+1
   852   0015C8  0012               	return		;funcret
   853   0015CA                     __end_of_INT0_SetInterruptHandler:
   854                           	callstack 0
   855                           
   856 ;; *************** function _I2C1_Initialize *****************
   857 ;; Defined at:
   858 ;;		line 114 in file "mcc_generated_files/i2c_host/src/mssp.c"
   859 ;; Parameters:    Size  Location     Type
   860 ;;		None
   861 ;; Auto vars:     Size  Location     Type
   862 ;;		None
   863 ;; Return value:  Size  Location     Type
   864 ;;                  1    wreg      void 
   865 ;; Registers used:
   866 ;;		wreg, status,2, status,0, cstack
   867 ;; Tracked objects:
   868 ;;		On entry : 0/0
   869 ;;		On exit  : 0/0
   870 ;;		Unchanged: 0/0
   871 ;; Data sizes:     COMRAM   BANK0   BANK1   BANK2   BANK3   BANK4   BANK5   BANK6   BANK7   BANK8   BANK9  BANK10  BANK1
      +1  BANK12  BANK13  BANK14  BANK15
   872 ;;      Params:         0       0       0       0       0       0       0       0       0       0       0       0       
      +0       0       0       0       0
   873 ;;      Locals:         0       0       0       0       0       0       0       0       0       0       0       0       
      +0       0       0       0       0
   874 ;;      Temps:          0       0       0       0       0       0       0       0       0       0       0       0       
      +0       0       0       0       0
   875 ;;      Totals:         0       0       0       0       0       0       0       0       0       0       0       0       
      +0       0       0       0       0
   876 ;;Total ram usage:        0 bytes
   877 ;; Hardware stack levels used: 1
   878 ;; Hardware stack levels required when called: 8
   879 ;; This function calls:
   880 ;;		_I2C1_CallbackRegister
   881 ;;		_I2C1_InterruptsEnable
   882 ;; This function is called by:
   883 ;;		_SYSTEM_Initialize
   884 ;; This function uses a non-reentrant model
   885 ;;
   886                           
   887                           	psect	text7
   888   001466                     __ptext7:
   889                           	callstack 0
   890   001466                     _I2C1_Initialize:
   891                           	callstack 21
   892   001466                     
   893                           ;mcc_generated_files/i2c_host/src/mssp.c: 117:     SSPSTAT = 0x80;
   894   001466  0E80               	movlw	128
   895   001468  6EC7               	movwf	199,c	;volatile
   896                           
   897                           ;mcc_generated_files/i2c_host/src/mssp.c: 119:     SSPCON1 = 0x8;
   898   00146A  0E08               	movlw	8
   899   00146C  6EC6               	movwf	198,c	;volatile
   900                           
   901                           ;mcc_generated_files/i2c_host/src/mssp.c: 121:     SSPCON2 = 0x0;
   902   00146E  0E00               	movlw	0
   903   001470  6EC5               	movwf	197,c	;volatile
   904                           
   905                           ;mcc_generated_files/i2c_host/src/mssp.c: 123:     SSPADD = 0x27;
   906   001472  0E27               	movlw	39
   907   001474  6EC8               	movwf	200,c	;volatile
   908   001476                     
   909                           ;mcc_generated_files/i2c_host/src/mssp.c: 124:     I2C1_InterruptsEnable();
   910   001476  EC01  F00B         	call	_I2C1_InterruptsEnable	;wreg free
   911   00147A                     
   912                           ;mcc_generated_files/i2c_host/src/mssp.c: 125:     I2C1_CallbackRegister(I2C1_DefaultCal
      +                          lback);
   913   00147A  0E4C               	movlw	low _I2C1_DefaultCallback
   914   00147C  6E43               	movwf	I2C1_CallbackRegister@callbackHandler^0,c
   915   00147E  0E16               	movlw	high _I2C1_DefaultCallback
   916   001480  6E44               	movwf	(I2C1_CallbackRegister@callbackHandler+1)^0,c
   917   001482  EC56  F00A         	call	_I2C1_CallbackRegister	;wreg free
   918   001486                     
   919                           ;mcc_generated_files/i2c_host/src/mssp.c: 126:     SSPCON1bits.SSPEN = 1;
   920   001486  8AC6               	bsf	198,5,c	;volatile
   921   001488  0012               	return		;funcret
   922   00148A                     __end_of_I2C1_Initialize:
   923                           	callstack 0
   924                           
   925 ;; *************** function _I2C1_InterruptsEnable *****************
   926 ;; Defined at:
   927 ;;		line 464 in file "mcc_generated_files/i2c_host/src/mssp.c"
   928 ;; Parameters:    Size  Location     Type
   929 ;;		None
   930 ;; Auto vars:     Size  Location     Type
   931 ;;		None
   932 ;; Return value:  Size  Location     Type
   933 ;;                  1    wreg      void 
   934 ;; Registers used:
   935 ;;		None
   936 ;; Tracked objects:
   937 ;;		On entry : 0/0
   938 ;;		On exit  : 0/0
   939 ;;		Unchanged: 0/0
   940 ;; Data sizes:     COMRAM   BANK0   BANK1   BANK2   BANK3   BANK4   BANK5   BANK6   BANK7   BANK8   BANK9  BANK10  BANK1
      +1  BANK12  BANK13  BANK14  BANK15
   941 ;;      Params:         0       0       0       0       0       0       0       0       0       0       0       0       
      +0       0       0       0       0
   942 ;;      Locals:         0       0       0       0       0       0       0       0       0       0       0       0       
      +0       0       0       0       0
   943 ;;      Temps:          0       0       0       0       0       0       0       0       0       0       0       0       
      +0       0       0       0       0
   944 ;;      Totals:         0       0       0       0       0       0       0       0       0       0       0       0       
      +0       0       0       0       0
   945 ;;Total ram usage:        0 bytes
   946 ;; Hardware stack levels used: 1
   947 ;; Hardware stack levels required when called: 7
   948 ;; This function calls:
   949 ;;		Nothing
   950 ;; This function is called by:
   951 ;;		_I2C1_Initialize
   952 ;; This function uses a non-reentrant model
   953 ;;
   954                           
   955                           	psect	text8
   956   001602                     __ptext8:
   957                           	callstack 0
   958   001602                     _I2C1_InterruptsEnable:
   959                           	callstack 21
   960   001602                     
   961                           ;mcc_generated_files/i2c_host/src/mssp.c: 466:     PIE1bits.SSPIE = 1;
   962   001602  869D               	bsf	157,3,c	;volatile
   963                           
   964                           ;mcc_generated_files/i2c_host/src/mssp.c: 467:     PIE2bits.BCLIE = 1;
   965   001604  86A0               	bsf	160,3,c	;volatile
   966   001606  0012               	return		;funcret
   967   001608                     __end_of_I2C1_InterruptsEnable:
   968                           	callstack 0
   969                           
   970 ;; *************** function _I2C1_CallbackRegister *****************
   971 ;; Defined at:
   972 ;;		line 208 in file "mcc_generated_files/i2c_host/src/mssp.c"
   973 ;; Parameters:    Size  Location     Type
   974 ;;  callbackHand    2   14[COMRAM] PTR FTN()void 
   975 ;;		 -> I2C1_DefaultCallback(1), 
   976 ;; Auto vars:     Size  Location     Type
   977 ;;		None
   978 ;; Return value:  Size  Location     Type
   979 ;;                  1    wreg      void 
   980 ;; Registers used:
   981 ;;		wreg, status,2, status,0
   982 ;; Tracked objects:
   983 ;;		On entry : 0/0
   984 ;;		On exit  : 0/0
   985 ;;		Unchanged: 0/0
   986 ;; Data sizes:     COMRAM   BANK0   BANK1   BANK2   BANK3   BANK4   BANK5   BANK6   BANK7   BANK8   BANK9  BANK10  BANK1
      +1  BANK12  BANK13  BANK14  BANK15
   987 ;;      Params:         2       0       0       0       0       0       0       0       0       0       0       0       
      +0       0       0       0       0
   988 ;;      Locals:         0       0       0       0       0       0       0       0       0       0       0       0       
      +0       0       0       0       0
   989 ;;      Temps:          0       0       0       0       0       0       0       0       0       0       0       0       
      +0       0       0       0       0
   990 ;;      Totals:         2       0       0       0       0       0       0       0       0       0       0       0       
      +0       0       0       0       0
   991 ;;Total ram usage:        2 bytes
   992 ;; Hardware stack levels used: 1
   993 ;; Hardware stack levels required when called: 7
   994 ;; This function calls:
   995 ;;		Nothing
   996 ;; This function is called by:
   997 ;;		_I2C1_Initialize
   998 ;;		_I2C1_Deinitialize
   999 ;; This function uses a non-reentrant model
  1000 ;;
  1001                           
  1002                           	psect	text9
  1003   0014AC                     __ptext9:
  1004                           	callstack 0
  1005   0014AC                     _I2C1_CallbackRegister:
  1006                           	callstack 21
  1007   0014AC                     
  1008                           ;mcc_generated_files/i2c_host/src/mssp.c: 208: void I2C1_CallbackRegister(void (*callbac
      +                          kHandler)(void));mcc_generated_files/i2c_host/src/mssp.c: 209: {;mcc_generated_files/i2c
      +                          _host/src/mssp.c: 210:     if (callbackHandler != ((void*)0))
  1009   0014AC  5043               	movf	I2C1_CallbackRegister@callbackHandler^0,w,c
  1010   0014AE  1044               	iorwf	(I2C1_CallbackRegister@callbackHandler+1)^0,w,c
  1011   0014B0  B4D8               	btfsc	status,2,c
  1012   0014B2  EF5D  F00A         	goto	u501
  1013   0014B6  EF5F  F00A         	goto	u500
  1014   0014BA                     u501:
  1015   0014BA  EF63  F00A         	goto	l452
  1016   0014BE                     u500:
  1017   0014BE                     
  1018                           ;mcc_generated_files/i2c_host/src/mssp.c: 211:     {;mcc_generated_files/i2c_host/src/ms
      +                          sp.c: 212:         I2C1_Callback = callbackHandler;
  1019   0014BE  C043  F027         	movff	I2C1_CallbackRegister@callbackHandler,_I2C1_Callback
  1020   0014C2  C044  F028         	movff	I2C1_CallbackRegister@callbackHandler+1,_I2C1_Callback+1
  1021   0014C6                     l452:
  1022   0014C6  0012               	return		;funcret
  1023   0014C8                     __end_of_I2C1_CallbackRegister:
  1024                           	callstack 0
  1025                           
  1026 ;; *************** function _EUSART_Initialize *****************
  1027 ;; Defined at:
  1028 ;;		line 94 in file "mcc_generated_files/uart/src/eusart.c"
  1029 ;; Parameters:    Size  Location     Type
  1030 ;;		None
  1031 ;; Auto vars:     Size  Location     Type
  1032 ;;		None
  1033 ;; Return value:  Size  Location     Type
  1034 ;;                  1    wreg      void 
  1035 ;; Registers used:
  1036 ;;		wreg, status,2, status,0, cstack
  1037 ;; Tracked objects:
  1038 ;;		On entry : 0/0
  1039 ;;		On exit  : 0/0
  1040 ;;		Unchanged: 0/0
  1041 ;; Data sizes:     COMRAM   BANK0   BANK1   BANK2   BANK3   BANK4   BANK5   BANK6   BANK7   BANK8   BANK9  BANK10  BANK1
      +1  BANK12  BANK13  BANK14  BANK15
  1042 ;;      Params:         0       0       0       0       0       0       0       0       0       0       0       0       
      +0       0       0       0       0
  1043 ;;      Locals:         0       0       0       0       0       0       0       0       0       0       0       0       
      +0       0       0       0       0
  1044 ;;      Temps:          0       0       0       0       0       0       0       0       0       0       0       0       
      +0       0       0       0       0
  1045 ;;      Totals:         0       0       0       0       0       0       0       0       0       0       0       0       
      +0       0       0       0       0
  1046 ;;Total ram usage:        0 bytes
  1047 ;; Hardware stack levels used: 1
  1048 ;; Hardware stack levels required when called: 8
  1049 ;; This function calls:
  1050 ;;		_EUSART_FramingErrorCallbackRegister
  1051 ;;		_EUSART_OverrunErrorCallbackRegister
  1052 ;; This function is called by:
  1053 ;;		_SYSTEM_Initialize
  1054 ;; This function uses a non-reentrant model
  1055 ;;
  1056                           
  1057                           	psect	text10
  1058   001374                     __ptext10:
  1059                           	callstack 0
  1060   001374                     _EUSART_Initialize:
  1061                           	callstack 21
  1062   001374                     
  1063                           ;mcc_generated_files/uart/src/eusart.c: 99:     BAUDCON = 0x48;
  1064   001374  0E48               	movlw	72
  1065   001376  6EB8               	movwf	184,c	;volatile
  1066                           
  1067                           ;mcc_generated_files/uart/src/eusart.c: 101:     RCSTA = 0x90;
  1068   001378  0E90               	movlw	144
  1069   00137A  6EAB               	movwf	171,c	;volatile
  1070                           
  1071                           ;mcc_generated_files/uart/src/eusart.c: 103:     TXSTA = 0x26;
  1072   00137C  0E26               	movlw	38
  1073   00137E  6EAC               	movwf	172,c	;volatile
  1074                           
  1075                           ;mcc_generated_files/uart/src/eusart.c: 105:     SPBRG = 0xA0;
  1076   001380  0EA0               	movlw	160
  1077   001382  6EAF               	movwf	175,c	;volatile
  1078                           
  1079                           ;mcc_generated_files/uart/src/eusart.c: 107:     SPBRGH = 0x1;
  1080   001384  0E01               	movlw	1
  1081   001386  6EB0               	movwf	176,c	;volatile
  1082   001388                     
  1083                           ;mcc_generated_files/uart/src/eusart.c: 109:     EUSART_FramingErrorCallbackRegister(EUS
      +                          ART_DefaultFramingErrorCallback);
  1084   001388  0E00               	movlw	0
  1085   00138A  6E43               	movwf	EUSART_FramingErrorCallbackRegister@callbackHandler^0,c
  1086   00138C  0E00               	movlw	0
  1087   00138E  6E44               	movwf	(EUSART_FramingErrorCallbackRegister@callbackHandler+1)^0,c
  1088   001390  EC72  F00A         	call	_EUSART_FramingErrorCallbackRegister	;wreg free
  1089   001394                     
  1090                           ;mcc_generated_files/uart/src/eusart.c: 110:     EUSART_OverrunErrorCallbackRegister(EUS
      +                          ART_DefaultOverrunErrorCallback);
  1091   001394  0E00               	movlw	0
  1092   001396  6E43               	movwf	EUSART_OverrunErrorCallbackRegister@callbackHandler^0,c
  1093   001398  0E00               	movlw	0
  1094   00139A  6E44               	movwf	(EUSART_OverrunErrorCallbackRegister@callbackHandler+1)^0,c
  1095   00139C  EC64  F00A         	call	_EUSART_OverrunErrorCallbackRegister	;wreg free
  1096                           
  1097                           ;mcc_generated_files/uart/src/eusart.c: 111:     eusartRxLastError.status = 0;
  1098   0013A0  0E00               	movlw	0
  1099   0013A2  6E2E               	movwf	(_eusartRxLastError+1)^0,c	;volatile
  1100   0013A4  0E00               	movlw	0
  1101   0013A6  6E2D               	movwf	_eusartRxLastError^0,c	;volatile
  1102   0013A8  0012               	return		;funcret
  1103   0013AA                     __end_of_EUSART_Initialize:
  1104                           	callstack 0
  1105                           
  1106 ;; *************** function _EUSART_OverrunErrorCallbackRegister *****************
  1107 ;; Defined at:
  1108 ;;		line 260 in file "mcc_generated_files/uart/src/eusart.c"
  1109 ;; Parameters:    Size  Location     Type
  1110 ;;  callbackHand    2   14[COMRAM] PTR FTN()void 
  1111 ;;		 -> EUSART_DefaultOverrunErrorCallback(1), 
  1112 ;; Auto vars:     Size  Location     Type
  1113 ;;		None
  1114 ;; Return value:  Size  Location     Type
  1115 ;;                  1    wreg      void 
  1116 ;; Registers used:
  1117 ;;		wreg, status,2, status,0
  1118 ;; Tracked objects:
  1119 ;;		On entry : 0/0
  1120 ;;		On exit  : 0/0
  1121 ;;		Unchanged: 0/0
  1122 ;; Data sizes:     COMRAM   BANK0   BANK1   BANK2   BANK3   BANK4   BANK5   BANK6   BANK7   BANK8   BANK9  BANK10  BANK1
      +1  BANK12  BANK13  BANK14  BANK15
  1123 ;;      Params:         2       0       0       0       0       0       0       0       0       0       0       0       
      +0       0       0       0       0
  1124 ;;      Locals:         0       0       0       0       0       0       0       0       0       0       0       0       
      +0       0       0       0       0
  1125 ;;      Temps:          0       0       0       0       0       0       0       0       0       0       0       0       
      +0       0       0       0       0
  1126 ;;      Totals:         2       0       0       0       0       0       0       0       0       0       0       0       
      +0       0       0       0       0
  1127 ;;Total ram usage:        2 bytes
  1128 ;; Hardware stack levels used: 1
  1129 ;; Hardware stack levels required when called: 7
  1130 ;; This function calls:
  1131 ;;		Nothing
  1132 ;; This function is called by:
  1133 ;;		_EUSART_Initialize
  1134 ;; This function uses a non-reentrant model
  1135 ;;
  1136                           
  1137                           	psect	text11
  1138   0014C8                     __ptext11:
  1139                           	callstack 0
  1140   0014C8                     _EUSART_OverrunErrorCallbackRegister:
  1141                           	callstack 21
  1142   0014C8                     
  1143                           ;mcc_generated_files/uart/src/eusart.c: 260: void EUSART_OverrunErrorCallbackRegister(vo
      +                          id (* callbackHandler)(void));mcc_generated_files/uart/src/eusart.c: 261: {;mcc_generate
      +                          d_files/uart/src/eusart.c: 262:     if(((void*)0) != callbackHandler)
  1144   0014C8  5043               	movf	EUSART_OverrunErrorCallbackRegister@callbackHandler^0,w,c
  1145   0014CA  1044               	iorwf	(EUSART_OverrunErrorCallbackRegister@callbackHandler+1)^0,w,c
  1146   0014CC  B4D8               	btfsc	status,2,c
  1147   0014CE  EF6B  F00A         	goto	u491
  1148   0014D2  EF6D  F00A         	goto	u490
  1149   0014D6                     u491:
  1150   0014D6  EF71  F00A         	goto	l308
  1151   0014DA                     u490:
  1152   0014DA                     
  1153                           ;mcc_generated_files/uart/src/eusart.c: 263:     {;mcc_generated_files/uart/src/eusart.c
      +                          : 264:         EUSART_OverrunErrorHandler = callbackHandler;
  1154   0014DA  C043  F029         	movff	EUSART_OverrunErrorCallbackRegister@callbackHandler,_EUSART_OverrunErrorHandler
  1155   0014DE  C044  F02A         	movff	EUSART_OverrunErrorCallbackRegister@callbackHandler+1,_EUSART_OverrunErrorHandler
      +                          +1
  1156   0014E2                     l308:
  1157   0014E2  0012               	return		;funcret
  1158   0014E4                     __end_of_EUSART_OverrunErrorCallbackRegister:
  1159                           	callstack 0
  1160                           
  1161 ;; *************** function _EUSART_FramingErrorCallbackRegister *****************
  1162 ;; Defined at:
  1163 ;;		line 252 in file "mcc_generated_files/uart/src/eusart.c"
  1164 ;; Parameters:    Size  Location     Type
  1165 ;;  callbackHand    2   14[COMRAM] PTR FTN()void 
  1166 ;;		 -> EUSART_DefaultFramingErrorCallback(1), 
  1167 ;; Auto vars:     Size  Location     Type
  1168 ;;		None
  1169 ;; Return value:  Size  Location     Type
  1170 ;;                  1    wreg      void 
  1171 ;; Registers used:
  1172 ;;		wreg, status,2, status,0
  1173 ;; Tracked objects:
  1174 ;;		On entry : 0/0
  1175 ;;		On exit  : 0/0
  1176 ;;		Unchanged: 0/0
  1177 ;; Data sizes:     COMRAM   BANK0   BANK1   BANK2   BANK3   BANK4   BANK5   BANK6   BANK7   BANK8   BANK9  BANK10  BANK1
      +1  BANK12  BANK13  BANK14  BANK15
  1178 ;;      Params:         2       0       0       0       0       0       0       0       0       0       0       0       
      +0       0       0       0       0
  1179 ;;      Locals:         0       0       0       0       0       0       0       0       0       0       0       0       
      +0       0       0       0       0
  1180 ;;      Temps:          0       0       0       0       0       0       0       0       0       0       0       0       
      +0       0       0       0       0
  1181 ;;      Totals:         2       0       0       0       0       0       0       0       0       0       0       0       
      +0       0       0       0       0
  1182 ;;Total ram usage:        2 bytes
  1183 ;; Hardware stack levels used: 1
  1184 ;; Hardware stack levels required when called: 7
  1185 ;; This function calls:
  1186 ;;		Nothing
  1187 ;; This function is called by:
  1188 ;;		_EUSART_Initialize
  1189 ;; This function uses a non-reentrant model
  1190 ;;
  1191                           
  1192                           	psect	text12
  1193   0014E4                     __ptext12:
  1194                           	callstack 0
  1195   0014E4                     _EUSART_FramingErrorCallbackRegister:
  1196                           	callstack 21
  1197   0014E4                     
  1198                           ;mcc_generated_files/uart/src/eusart.c: 252: void EUSART_FramingErrorCallbackRegister(vo
      +                          id (* callbackHandler)(void));mcc_generated_files/uart/src/eusart.c: 253: {;mcc_generate
      +                          d_files/uart/src/eusart.c: 254:     if(((void*)0) != callbackHandler)
  1199   0014E4  5043               	movf	EUSART_FramingErrorCallbackRegister@callbackHandler^0,w,c
  1200   0014E6  1044               	iorwf	(EUSART_FramingErrorCallbackRegister@callbackHandler+1)^0,w,c
  1201   0014E8  B4D8               	btfsc	status,2,c
  1202   0014EA  EF79  F00A         	goto	u481
  1203   0014EE  EF7B  F00A         	goto	u480
  1204   0014F2                     u481:
  1205   0014F2  EF7F  F00A         	goto	l304
  1206   0014F6                     u480:
  1207   0014F6                     
  1208                           ;mcc_generated_files/uart/src/eusart.c: 255:     {;mcc_generated_files/uart/src/eusart.c
      +                          : 256:         EUSART_FramingErrorHandler = callbackHandler;
  1209   0014F6  C043  F02B         	movff	EUSART_FramingErrorCallbackRegister@callbackHandler,_EUSART_FramingErrorHandler
  1210   0014FA  C044  F02C         	movff	EUSART_FramingErrorCallbackRegister@callbackHandler+1,_EUSART_FramingErrorHandler
      +                          +1
  1211   0014FE                     l304:
  1212   0014FE  0012               	return		;funcret
  1213   001500                     __end_of_EUSART_FramingErrorCallbackRegister:
  1214                           	callstack 0
  1215                           
  1216 ;; *************** function _CLOCK_Initialize *****************
  1217 ;; Defined at:
  1218 ;;		line 37 in file "mcc_generated_files/system/src/clock.c"
  1219 ;; Parameters:    Size  Location     Type
  1220 ;;		None
  1221 ;; Auto vars:     Size  Location     Type
  1222 ;;		None
  1223 ;; Return value:  Size  Location     Type
  1224 ;;                  1    wreg      void 
  1225 ;; Registers used:
  1226 ;;		wreg, status,2
  1227 ;; Tracked objects:
  1228 ;;		On entry : 0/0
  1229 ;;		On exit  : 0/0
  1230 ;;		Unchanged: 0/0
  1231 ;; Data sizes:     COMRAM   BANK0   BANK1   BANK2   BANK3   BANK4   BANK5   BANK6   BANK7   BANK8   BANK9  BANK10  BANK1
      +1  BANK12  BANK13  BANK14  BANK15
  1232 ;;      Params:         0       0       0       0       0       0       0       0       0       0       0       0       
      +0       0       0       0       0
  1233 ;;      Locals:         0       0       0       0       0       0       0       0       0       0       0       0       
      +0       0       0       0       0
  1234 ;;      Temps:          0       0       0       0       0       0       0       0       0       0       0       0       
      +0       0       0       0       0
  1235 ;;      Totals:         0       0       0       0       0       0       0       0       0       0       0       0       
      +0       0       0       0       0
  1236 ;;Total ram usage:        0 bytes
  1237 ;; Hardware stack levels used: 1
  1238 ;; Hardware stack levels required when called: 7
  1239 ;; This function calls:
  1240 ;;		Nothing
  1241 ;; This function is called by:
  1242 ;;		_SYSTEM_Initialize
  1243 ;; This function uses a non-reentrant model
  1244 ;;
  1245                           
  1246                           	psect	text13
  1247   0015CA                     __ptext13:
  1248                           	callstack 0
  1249   0015CA                     _CLOCK_Initialize:
  1250                           	callstack 22
  1251   0015CA                     
  1252                           ;mcc_generated_files/system/src/clock.c: 41:     OSCCON = 0x30;
  1253   0015CA  0E30               	movlw	48
  1254   0015CC  6ED3               	movwf	211,c	;volatile
  1255                           
  1256                           ;mcc_generated_files/system/src/clock.c: 43:     OSCTUNE = 0x0;
  1257   0015CE  0E00               	movlw	0
  1258   0015D0  6E9B               	movwf	155,c	;volatile
  1259   0015D2  0012               	return		;funcret
  1260   0015D4                     __end_of_CLOCK_Initialize:
  1261                           	callstack 0
  1262                           
  1263 ;; *************** function _RealTimeDS1307_Gen_Data *****************
  1264 ;; Defined at:
  1265 ;;		line 4 in file "RealTimeDS1307/RealTimeDS1307.c"
  1266 ;; Parameters:    Size  Location     Type
  1267 ;;		None
  1268 ;; Auto vars:     Size  Location     Type
  1269 ;;		None
  1270 ;; Return value:  Size  Location     Type
  1271 ;;                  12    0[BANK0 ] struct .
  1272 ;; Registers used:
  1273 ;;		wreg, fsr0l, fsr0h, fsr2l, fsr2h, status,2, status,0, cstack
  1274 ;; Tracked objects:
  1275 ;;		On entry : 0/0
  1276 ;;		On exit  : 0/0
  1277 ;;		Unchanged: 0/0
  1278 ;; Data sizes:     COMRAM   BANK0   BANK1   BANK2   BANK3   BANK4   BANK5   BANK6   BANK7   BANK8   BANK9  BANK10  BANK1
      +1  BANK12  BANK13  BANK14  BANK15
  1279 ;;      Params:         0      12       0       0       0       0       0       0       0       0       0       0       
      +0       0       0       0       0
  1280 ;;      Locals:         0       0       0       0       0       0       0       0       0       0       0       0       
      +0       0       0       0       0
  1281 ;;      Temps:          1       0       0       0       0       0       0       0       0       0       0       0       
      +0       0       0       0       0
  1282 ;;      Totals:         1      12       0       0       0       0       0       0       0       0       0       0       
      +0       0       0       0       0
  1283 ;;Total ram usage:       13 bytes
  1284 ;; Hardware stack levels used: 1
  1285 ;; Hardware stack levels required when called: 10
  1286 ;; This function calls:
  1287 ;;		_I2C1_Read
  1288 ;; This function is called by:
  1289 ;;		_main
  1290 ;; This function uses a non-reentrant model
  1291 ;;
  1292                           
  1293                           	psect	text14
  1294   001058                     __ptext14:
  1295                           	callstack 0
  1296   001058                     _RealTimeDS1307_Gen_Data:
  1297                           	callstack 20
  1298   001058                     
  1299                           ;RealTimeDS1307/RealTimeDS1307.c: 5: Real_TimeDs1307.Seconds = I2C1_Read(0x68,0x00,1);
  1300   001058  0E00               	movlw	0
  1301   00105A  6E45               	movwf	(I2C1_Read@address+1)^0,c
  1302   00105C  0E68               	movlw	104
  1303   00105E  6E44               	movwf	I2C1_Read@address^0,c
  1304   001060  0E00               	movlw	0
  1305   001062  6E46               	movwf	I2C1_Read@data^0,c
  1306   001064  0E00               	movlw	0
  1307   001066  6E47               	movwf	(I2C1_Read@data+1)^0,c
  1308   001068  0E00               	movlw	0
  1309   00106A  6E49               	movwf	(I2C1_Read@dataLength+1)^0,c
  1310   00106C  0E01               	movlw	1
  1311   00106E  6E48               	movwf	I2C1_Read@dataLength^0,c
  1312   001070  EC8E  F009         	call	_I2C1_Read	;wreg free
  1313   001074  6E4B               	movwf	??_RealTimeDS1307_Gen_Data^0,c
  1314   001076  504B               	movf	??_RealTimeDS1307_Gen_Data^0,w,c
  1315   001078  6E13               	movwf	(_Real_TimeDs1307+4)^0,c
  1316   00107A  6A14               	clrf	(_Real_TimeDs1307+5)^0,c
  1317                           
  1318                           ;RealTimeDS1307/RealTimeDS1307.c: 6: Real_TimeDs1307.Minuties = I2C1_Read(0x68,0x01,1);
  1319   00107C  0E00               	movlw	0
  1320   00107E  6E45               	movwf	(I2C1_Read@address+1)^0,c
  1321   001080  0E68               	movlw	104
  1322   001082  6E44               	movwf	I2C1_Read@address^0,c
  1323   001084  0E01               	movlw	1
  1324   001086  6E46               	movwf	I2C1_Read@data^0,c
  1325   001088  0E00               	movlw	0
  1326   00108A  6E47               	movwf	(I2C1_Read@data+1)^0,c
  1327   00108C  0E00               	movlw	0
  1328   00108E  6E49               	movwf	(I2C1_Read@dataLength+1)^0,c
  1329   001090  0E01               	movlw	1
  1330   001092  6E48               	movwf	I2C1_Read@dataLength^0,c
  1331   001094  EC8E  F009         	call	_I2C1_Read	;wreg free
  1332   001098  6E4B               	movwf	??_RealTimeDS1307_Gen_Data^0,c
  1333   00109A  504B               	movf	??_RealTimeDS1307_Gen_Data^0,w,c
  1334   00109C  6E11               	movwf	(_Real_TimeDs1307+2)^0,c
  1335   00109E  6A12               	clrf	(_Real_TimeDs1307+3)^0,c
  1336                           
  1337                           ;RealTimeDS1307/RealTimeDS1307.c: 7: Real_TimeDs1307.Hours = I2C1_Read(0x68,0x02,1);
  1338   0010A0  0E00               	movlw	0
  1339   0010A2  6E45               	movwf	(I2C1_Read@address+1)^0,c
  1340   0010A4  0E68               	movlw	104
  1341   0010A6  6E44               	movwf	I2C1_Read@address^0,c
  1342   0010A8  0E02               	movlw	2
  1343   0010AA  6E46               	movwf	I2C1_Read@data^0,c
  1344   0010AC  0E00               	movlw	0
  1345   0010AE  6E47               	movwf	(I2C1_Read@data+1)^0,c
  1346   0010B0  0E00               	movlw	0
  1347   0010B2  6E49               	movwf	(I2C1_Read@dataLength+1)^0,c
  1348   0010B4  0E01               	movlw	1
  1349   0010B6  6E48               	movwf	I2C1_Read@dataLength^0,c
  1350   0010B8  EC8E  F009         	call	_I2C1_Read	;wreg free
  1351   0010BC  6E4B               	movwf	??_RealTimeDS1307_Gen_Data^0,c
  1352   0010BE  504B               	movf	??_RealTimeDS1307_Gen_Data^0,w,c
  1353   0010C0  6E0F               	movwf	_Real_TimeDs1307^0,c
  1354   0010C2  6A10               	clrf	(_Real_TimeDs1307+1)^0,c
  1355                           
  1356                           ;RealTimeDS1307/RealTimeDS1307.c: 8: Real_TimeDs1307.Days = I2C1_Read(0x68,0x03,1);
  1357   0010C4  0E00               	movlw	0
  1358   0010C6  6E45               	movwf	(I2C1_Read@address+1)^0,c
  1359   0010C8  0E68               	movlw	104
  1360   0010CA  6E44               	movwf	I2C1_Read@address^0,c
  1361   0010CC  0E03               	movlw	3
  1362   0010CE  6E46               	movwf	I2C1_Read@data^0,c
  1363   0010D0  0E00               	movlw	0
  1364   0010D2  6E47               	movwf	(I2C1_Read@data+1)^0,c
  1365   0010D4  0E00               	movlw	0
  1366   0010D6  6E49               	movwf	(I2C1_Read@dataLength+1)^0,c
  1367   0010D8  0E01               	movlw	1
  1368   0010DA  6E48               	movwf	I2C1_Read@dataLength^0,c
  1369   0010DC  EC8E  F009         	call	_I2C1_Read	;wreg free
  1370   0010E0  6E4B               	movwf	??_RealTimeDS1307_Gen_Data^0,c
  1371   0010E2  504B               	movf	??_RealTimeDS1307_Gen_Data^0,w,c
  1372   0010E4  6E15               	movwf	(_Real_TimeDs1307+6)^0,c
  1373   0010E6  6A16               	clrf	(_Real_TimeDs1307+7)^0,c
  1374                           
  1375                           ;RealTimeDS1307/RealTimeDS1307.c: 9: Real_TimeDs1307.Monthes = I2C1_Read(0x68,0x04,1);
  1376   0010E8  0E00               	movlw	0
  1377   0010EA  6E45               	movwf	(I2C1_Read@address+1)^0,c
  1378   0010EC  0E68               	movlw	104
  1379   0010EE  6E44               	movwf	I2C1_Read@address^0,c
  1380   0010F0  0E04               	movlw	4
  1381   0010F2  6E46               	movwf	I2C1_Read@data^0,c
  1382   0010F4  0E00               	movlw	0
  1383   0010F6  6E47               	movwf	(I2C1_Read@data+1)^0,c
  1384   0010F8  0E00               	movlw	0
  1385   0010FA  6E49               	movwf	(I2C1_Read@dataLength+1)^0,c
  1386   0010FC  0E01               	movlw	1
  1387   0010FE  6E48               	movwf	I2C1_Read@dataLength^0,c
  1388   001100  EC8E  F009         	call	_I2C1_Read	;wreg free
  1389   001104  6E4B               	movwf	??_RealTimeDS1307_Gen_Data^0,c
  1390   001106  504B               	movf	??_RealTimeDS1307_Gen_Data^0,w,c
  1391   001108  6E17               	movwf	(_Real_TimeDs1307+8)^0,c
  1392   00110A  6A18               	clrf	(_Real_TimeDs1307+9)^0,c
  1393                           
  1394                           ;RealTimeDS1307/RealTimeDS1307.c: 10: Real_TimeDs1307.Years = I2C1_Read(0x68,0x05,1);
  1395   00110C  0E00               	movlw	0
  1396   00110E  6E45               	movwf	(I2C1_Read@address+1)^0,c
  1397   001110  0E68               	movlw	104
  1398   001112  6E44               	movwf	I2C1_Read@address^0,c
  1399   001114  0E05               	movlw	5
  1400   001116  6E46               	movwf	I2C1_Read@data^0,c
  1401   001118  0E00               	movlw	0
  1402   00111A  6E47               	movwf	(I2C1_Read@data+1)^0,c
  1403   00111C  0E00               	movlw	0
  1404   00111E  6E49               	movwf	(I2C1_Read@dataLength+1)^0,c
  1405   001120  0E01               	movlw	1
  1406   001122  6E48               	movwf	I2C1_Read@dataLength^0,c
  1407   001124  EC8E  F009         	call	_I2C1_Read	;wreg free
  1408   001128  6E4B               	movwf	??_RealTimeDS1307_Gen_Data^0,c
  1409   00112A  504B               	movf	??_RealTimeDS1307_Gen_Data^0,w,c
  1410   00112C  6E19               	movwf	(_Real_TimeDs1307+10)^0,c
  1411   00112E  6A1A               	clrf	(_Real_TimeDs1307+11)^0,c
  1412   001130                     
  1413                           ;RealTimeDS1307/RealTimeDS1307.c: 12: return Real_TimeDs1307;
  1414   001130  EE20  F00F         	lfsr	2,_Real_TimeDs1307
  1415   001134  EE00  F060         	lfsr	0,?_RealTimeDS1307_Gen_Data
  1416   001138  0E0B               	movlw	11
  1417   00113A                     u581:
  1418   00113A  CFDB FFEB          	movff	plusw2,plusw0
  1419   00113E  06E8               	decf	wreg,f,c
  1420   001140  E2FC               	bc	u581
  1421   001142  0012               	return		;funcret
  1422   001144                     __end_of_RealTimeDS1307_Gen_Data:
  1423                           	callstack 0
  1424                           
  1425 ;; *************** function _I2C1_Read *****************
  1426 ;; Defined at:
  1427 ;;		line 158 in file "mcc_generated_files/i2c_host/src/mssp.c"
  1428 ;; Parameters:    Size  Location     Type
  1429 ;;  address         2   15[COMRAM] unsigned short 
  1430 ;;  data            2   17[COMRAM] PTR unsigned char 
  1431 ;;		 -> RAM(3935), NULL(0), 
  1432 ;;  dataLength      2   19[COMRAM] unsigned int 
  1433 ;; Auto vars:     Size  Location     Type
  1434 ;;  retStatus       1   21[COMRAM] _Bool 
  1435 ;; Return value:  Size  Location     Type
  1436 ;;                  1    wreg      _Bool 
  1437 ;; Registers used:
  1438 ;;		wreg, status,2, status,0, cstack
  1439 ;; Tracked objects:
  1440 ;;		On entry : 0/0
  1441 ;;		On exit  : 0/0
  1442 ;;		Unchanged: 0/0
  1443 ;; Data sizes:     COMRAM   BANK0   BANK1   BANK2   BANK3   BANK4   BANK5   BANK6   BANK7   BANK8   BANK9  BANK10  BANK1
      +1  BANK12  BANK13  BANK14  BANK15
  1444 ;;      Params:         6       0       0       0       0       0       0       0       0       0       0       0       
      +0       0       0       0       0
  1445 ;;      Locals:         1       0       0       0       0       0       0       0       0       0       0       0       
      +0       0       0       0       0
  1446 ;;      Temps:          0       0       0       0       0       0       0       0       0       0       0       0       
      +0       0       0       0       0
  1447 ;;      Totals:         7       0       0       0       0       0       0       0       0       0       0       0       
      +0       0       0       0       0
  1448 ;;Total ram usage:        7 bytes
  1449 ;; Hardware stack levels used: 1
  1450 ;; Hardware stack levels required when called: 9
  1451 ;; This function calls:
  1452 ;;		_I2C1_IsBusy
  1453 ;;		_I2C1_ReadStart
  1454 ;; This function is called by:
  1455 ;;		_RealTimeDS1307_Gen_Data
  1456 ;; This function uses a non-reentrant model
  1457 ;;
  1458                           
  1459                           	psect	text15
  1460   00131C                     __ptext15:
  1461                           	callstack 0
  1462   00131C                     _I2C1_Read:
  1463                           	callstack 20
  1464   00131C                     
  1465                           ;mcc_generated_files/i2c_host/src/mssp.c: 158: _Bool I2C1_Read(uint16_t address, uint8_t
      +                           *data, size_t dataLength);mcc_generated_files/i2c_host/src/mssp.c: 159: {;mcc_generated
      +                          _files/i2c_host/src/mssp.c: 160:     _Bool retStatus = 0;
  1466   00131C  0E00               	movlw	0
  1467   00131E  6E4A               	movwf	I2C1_Read@retStatus^0,c
  1468   001320                     
  1469                           ;mcc_generated_files/i2c_host/src/mssp.c: 161:     if (!I2C1_IsBusy())
  1470   001320  EC1E  F00A         	call	_I2C1_IsBusy	;wreg free
  1471   001324  0900               	iorlw	0
  1472   001326  A4D8               	btfss	status,2,c
  1473   001328  EF98  F009         	goto	u531
  1474   00132C  EF9A  F009         	goto	u530
  1475   001330                     u531:
  1476   001330  EFB8  F009         	goto	l1795
  1477   001334                     u530:
  1478   001334                     
  1479                           ;mcc_generated_files/i2c_host/src/mssp.c: 162:     {;mcc_generated_files/i2c_host/src/ms
      +                          sp.c: 163:         i2c1Status.busy = 1;
  1480   001334  0E01               	movlw	1
  1481   001336  6E01               	movwf	_i2c1Status^0,c	;volatile
  1482   001338                     
  1483                           ;mcc_generated_files/i2c_host/src/mssp.c: 164:         i2c1Status.address = address;
  1484   001338  C044  F002         	movff	I2C1_Read@address,_i2c1Status+1	;volatile
  1485   00133C  C045  F003         	movff	I2C1_Read@address+1,_i2c1Status+2	;volatile
  1486                           
  1487                           ;mcc_generated_files/i2c_host/src/mssp.c: 165:         i2c1Status.switchToRead = 0;
  1488   001340  0E00               	movlw	0
  1489   001342  6E0C               	movwf	(_i2c1Status+11)^0,c	;volatile
  1490   001344                     
  1491                           ;mcc_generated_files/i2c_host/src/mssp.c: 166:         i2c1Status.readPtr = data;
  1492   001344  C046  F008         	movff	I2C1_Read@data,_i2c1Status+7	;volatile
  1493   001348  C047  F009         	movff	I2C1_Read@data+1,_i2c1Status+8	;volatile
  1494   00134C                     
  1495                           ;mcc_generated_files/i2c_host/src/mssp.c: 167:         i2c1Status.readLength = dataLengt
      +                          h;
  1496   00134C  C048  F00A         	movff	I2C1_Read@dataLength,_i2c1Status+9	;volatile
  1497   001350  C049  F00B         	movff	I2C1_Read@dataLength+1,_i2c1Status+10	;volatile
  1498   001354                     
  1499                           ;mcc_generated_files/i2c_host/src/mssp.c: 168:         i2c1Status.writePtr = ((void*)0);
  1500   001354  0E00               	movlw	0
  1501   001356  6E04               	movwf	(_i2c1Status+3)^0,c	;volatile
  1502   001358  0E00               	movlw	0
  1503   00135A  6E05               	movwf	(_i2c1Status+4)^0,c	;volatile
  1504                           
  1505                           ;mcc_generated_files/i2c_host/src/mssp.c: 169:         i2c1Status.writeLength = 0;
  1506   00135C  0E00               	movlw	0
  1507   00135E  6E07               	movwf	(_i2c1Status+6)^0,c	;volatile
  1508   001360  0E00               	movlw	0
  1509   001362  6E06               	movwf	(_i2c1Status+5)^0,c	;volatile
  1510                           
  1511                           ;mcc_generated_files/i2c_host/src/mssp.c: 170:         i2c1Status.errorState = I2C_ERROR
      +                          _NONE;
  1512   001364  0E00               	movlw	0
  1513   001366  6E0D               	movwf	(_i2c1Status+12)^0,c	;volatile
  1514   001368                     
  1515                           ;mcc_generated_files/i2c_host/src/mssp.c: 171:         I2C1_ReadStart();
  1516   001368  ECEA  F00A         	call	_I2C1_ReadStart	;wreg free
  1517   00136C                     
  1518                           ;mcc_generated_files/i2c_host/src/mssp.c: 172:         retStatus = 1;
  1519   00136C  0E01               	movlw	1
  1520   00136E  6E4A               	movwf	I2C1_Read@retStatus^0,c
  1521   001370                     l1795:
  1522                           
  1523                           ;mcc_generated_files/i2c_host/src/mssp.c: 174:     return retStatus;
  1524   001370  504A               	movf	I2C1_Read@retStatus^0,w,c
  1525   001372  0012               	return		;funcret
  1526   001374                     __end_of_I2C1_Read:
  1527                           	callstack 0
  1528                           
  1529 ;; *************** function _I2C1_ReadStart *****************
  1530 ;; Defined at:
  1531 ;;		line 229 in file "mcc_generated_files/i2c_host/src/mssp.c"
  1532 ;; Parameters:    Size  Location     Type
  1533 ;;		None
  1534 ;; Auto vars:     Size  Location     Type
  1535 ;;		None
  1536 ;; Return value:  Size  Location     Type
  1537 ;;                  1    wreg      void 
  1538 ;; Registers used:
  1539 ;;		wreg, status,2, cstack
  1540 ;; Tracked objects:
  1541 ;;		On entry : 0/0
  1542 ;;		On exit  : 0/0
  1543 ;;		Unchanged: 0/0
  1544 ;; Data sizes:     COMRAM   BANK0   BANK1   BANK2   BANK3   BANK4   BANK5   BANK6   BANK7   BANK8   BANK9  BANK10  BANK1
      +1  BANK12  BANK13  BANK14  BANK15
  1545 ;;      Params:         0       0       0       0       0       0       0       0       0       0       0       0       
      +0       0       0       0       0
  1546 ;;      Locals:         0       0       0       0       0       0       0       0       0       0       0       0       
      +0       0       0       0       0
  1547 ;;      Temps:          0       0       0       0       0       0       0       0       0       0       0       0       
      +0       0       0       0       0
  1548 ;;      Totals:         0       0       0       0       0       0       0       0       0       0       0       0       
      +0       0       0       0       0
  1549 ;;Total ram usage:        0 bytes
  1550 ;; Hardware stack levels used: 1
  1551 ;; Hardware stack levels required when called: 8
  1552 ;; This function calls:
  1553 ;;		_I2C1_StartSend
  1554 ;; This function is called by:
  1555 ;;		_I2C1_Read
  1556 ;; This function uses a non-reentrant model
  1557 ;;
  1558                           
  1559                           	psect	text16
  1560   0015D4                     __ptext16:
  1561                           	callstack 0
  1562   0015D4                     _I2C1_ReadStart:
  1563                           	callstack 20
  1564   0015D4                     
  1565                           ;mcc_generated_files/i2c_host/src/mssp.c: 231:     I2C1_StartSend();
  1566   0015D4  EC16  F00B         	call	_I2C1_StartSend	;wreg free
  1567   0015D8                     
  1568                           ;mcc_generated_files/i2c_host/src/mssp.c: 232:     i2c1Status.state = I2C_STATE_SEND_RD_
      +                          ADDR;
  1569   0015D8  0E01               	movlw	1
  1570   0015DA  6E0E               	movwf	(_i2c1Status+13)^0,c	;volatile
  1571   0015DC  0012               	return		;funcret
  1572   0015DE                     __end_of_I2C1_ReadStart:
  1573                           	callstack 0
  1574                           
  1575 ;; *************** function _I2C1_StartSend *****************
  1576 ;; Defined at:
  1577 ;;		line 422 in file "mcc_generated_files/i2c_host/src/mssp.c"
  1578 ;; Parameters:    Size  Location     Type
  1579 ;;		None
  1580 ;; Auto vars:     Size  Location     Type
  1581 ;;		None
  1582 ;; Return value:  Size  Location     Type
  1583 ;;                  1    wreg      void 
  1584 ;; Registers used:
  1585 ;;		None
  1586 ;; Tracked objects:
  1587 ;;		On entry : 0/0
  1588 ;;		On exit  : 0/0
  1589 ;;		Unchanged: 0/0
  1590 ;; Data sizes:     COMRAM   BANK0   BANK1   BANK2   BANK3   BANK4   BANK5   BANK6   BANK7   BANK8   BANK9  BANK10  BANK1
      +1  BANK12  BANK13  BANK14  BANK15
  1591 ;;      Params:         0       0       0       0       0       0       0       0       0       0       0       0       
      +0       0       0       0       0
  1592 ;;      Locals:         0       0       0       0       0       0       0       0       0       0       0       0       
      +0       0       0       0       0
  1593 ;;      Temps:          0       0       0       0       0       0       0       0       0       0       0       0       
      +0       0       0       0       0
  1594 ;;      Totals:         0       0       0       0       0       0       0       0       0       0       0       0       
      +0       0       0       0       0
  1595 ;;Total ram usage:        0 bytes
  1596 ;; Hardware stack levels used: 1
  1597 ;; Hardware stack levels required when called: 7
  1598 ;; This function calls:
  1599 ;;		Nothing
  1600 ;; This function is called by:
  1601 ;;		_I2C1_ReadStart
  1602 ;;		_I2C1_WriteStart
  1603 ;; This function uses a non-reentrant model
  1604 ;;
  1605                           
  1606                           	psect	text17
  1607   00162C                     __ptext17:
  1608                           	callstack 0
  1609   00162C                     _I2C1_StartSend:
  1610                           	callstack 20
  1611   00162C                     
  1612                           ;mcc_generated_files/i2c_host/src/mssp.c: 424:     SSPCON2bits.SEN = 1;
  1613   00162C  80C5               	bsf	197,0,c	;volatile
  1614   00162E  0012               	return		;funcret
  1615   001630                     __end_of_I2C1_StartSend:
  1616                           	callstack 0
  1617                           
  1618 ;; *************** function _I2C1_IsBusy *****************
  1619 ;; Defined at:
  1620 ;;		line 203 in file "mcc_generated_files/i2c_host/src/mssp.c"
  1621 ;; Parameters:    Size  Location     Type
  1622 ;;		None
  1623 ;; Auto vars:     Size  Location     Type
  1624 ;;		None
  1625 ;; Return value:  Size  Location     Type
  1626 ;;                  1    wreg      _Bool 
  1627 ;; Registers used:
  1628 ;;		wreg, status,2
  1629 ;; Tracked objects:
  1630 ;;		On entry : 0/0
  1631 ;;		On exit  : 0/0
  1632 ;;		Unchanged: 0/0
  1633 ;; Data sizes:     COMRAM   BANK0   BANK1   BANK2   BANK3   BANK4   BANK5   BANK6   BANK7   BANK8   BANK9  BANK10  BANK1
      +1  BANK12  BANK13  BANK14  BANK15
  1634 ;;      Params:         0       0       0       0       0       0       0       0       0       0       0       0       
      +0       0       0       0       0
  1635 ;;      Locals:         1       0       0       0       0       0       0       0       0       0       0       0       
      +0       0       0       0       0
  1636 ;;      Temps:          0       0       0       0       0       0       0       0       0       0       0       0       
      +0       0       0       0       0
  1637 ;;      Totals:         1       0       0       0       0       0       0       0       0       0       0       0       
      +0       0       0       0       0
  1638 ;;Total ram usage:        1 bytes
  1639 ;; Hardware stack levels used: 1
  1640 ;; Hardware stack levels required when called: 7
  1641 ;; This function calls:
  1642 ;;		Nothing
  1643 ;; This function is called by:
  1644 ;;		_I2C1_Read
  1645 ;;		_I2C1_Write
  1646 ;;		_I2C1_WriteRead
  1647 ;; This function uses a non-reentrant model
  1648 ;;
  1649                           
  1650                           	psect	text18
  1651   00143C                     __ptext18:
  1652                           	callstack 0
  1653   00143C                     _I2C1_IsBusy:
  1654                           	callstack 21
  1655   00143C                     
  1656                           ;mcc_generated_files/i2c_host/src/mssp.c: 205:     return i2c1Status.busy || SSPSTATbits
      +                          .S;
  1657   00143C  0E01               	movlw	1
  1658   00143E  6E43               	movwf	_I2C1_IsBusy$1709^0,c
  1659   001440  5001               	movf	_i2c1Status^0,w,c	;volatile
  1660   001442  A4D8               	btfss	status,2,c
  1661   001444  EF26  F00A         	goto	u511
  1662   001448  EF28  F00A         	goto	u510
  1663   00144C                     u511:
  1664   00144C  EF31  F00A         	goto	l447
  1665   001450                     u510:
  1666   001450  B6C7               	btfsc	199,3,c	;volatile
  1667   001452  EF2D  F00A         	goto	u521
  1668   001456  EF2F  F00A         	goto	u520
  1669   00145A                     u521:
  1670   00145A  EF31  F00A         	goto	l447
  1671   00145E                     u520:
  1672   00145E  0E00               	movlw	0
  1673   001460  6E43               	movwf	_I2C1_IsBusy$1709^0,c
  1674   001462                     l447:
  1675   001462  5043               	movf	_I2C1_IsBusy$1709^0,w,c
  1676   001464  0012               	return		;funcret
  1677   001466                     __end_of_I2C1_IsBusy:
  1678                           	callstack 0
  1679                           
  1680 ;; *************** function _INTERRUPT_InterruptManager *****************
  1681 ;; Defined at:
  1682 ;;		line 80 in file "mcc_generated_files/system/src/interrupt.c"
  1683 ;; Parameters:    Size  Location     Type
  1684 ;;		None
  1685 ;; Auto vars:     Size  Location     Type
  1686 ;;		None
  1687 ;; Return value:  Size  Location     Type
  1688 ;;                  1    wreg      void 
  1689 ;; Registers used:
  1690 ;;		wreg, fsr2l, fsr2h, status,2, status,0, pcl, pclath, pclatu, tosl, tblptrl, tblptrh, tblptru, prodl, prodh, cstack
  1691 ;; Tracked objects:
  1692 ;;		On entry : 0/0
  1693 ;;		On exit  : 0/0
  1694 ;;		Unchanged: 0/0
  1695 ;; Data sizes:     COMRAM   BANK0   BANK1   BANK2   BANK3   BANK4   BANK5   BANK6   BANK7   BANK8   BANK9  BANK10  BANK1
      +1  BANK12  BANK13  BANK14  BANK15
  1696 ;;      Params:         0       0       0       0       0       0       0       0       0       0       0       0       
      +0       0       0       0       0
  1697 ;;      Locals:         0       0       0       0       0       0       0       0       0       0       0       0       
      +0       0       0       0       0
  1698 ;;      Temps:         10       0       0       0       0       0       0       0       0       0       0       0       
      +0       0       0       0       0
  1699 ;;      Totals:        10       0       0       0       0       0       0       0       0       0       0       0       
      +0       0       0       0       0
  1700 ;;Total ram usage:       10 bytes
  1701 ;; Hardware stack levels used: 1
  1702 ;; Hardware stack levels required when called: 6
  1703 ;; This function calls:
  1704 ;;		_I2C1_ERROR_ISR
  1705 ;;		_I2C1_ISR
  1706 ;; This function is called by:
  1707 ;;		Interrupt level 2
  1708 ;; This function uses a non-reentrant model
  1709 ;;
  1710                           
  1711                           	psect	intcode
  1712   000008                     __pintcode:
  1713                           	callstack 0
  1714   000008                     _INTERRUPT_InterruptManager:
  1715                           	callstack 20
  1716                           
  1717                           ;incstack = 0
  1718   000008  824C               	bsf	int$flags,1,c	;set compiler interrupt flag (level 2)
  1719   00000A  CFFA F039          	movff	pclath,??_INTERRUPT_InterruptManager
  1720   00000E  CFFB F03A          	movff	pclatu,??_INTERRUPT_InterruptManager+1
  1721   000012  CFD9 F03B          	movff	fsr2l,??_INTERRUPT_InterruptManager+2
  1722   000016  CFDA F03C          	movff	fsr2h,??_INTERRUPT_InterruptManager+3
  1723   00001A  CFF3 F03D          	movff	prodl,??_INTERRUPT_InterruptManager+4
  1724   00001E  CFF4 F03E          	movff	prodh,??_INTERRUPT_InterruptManager+5
  1725   000022  CFF6 F03F          	movff	tblptrl,??_INTERRUPT_InterruptManager+6
  1726   000026  CFF7 F040          	movff	tblptrh,??_INTERRUPT_InterruptManager+7
  1727   00002A  CFF8 F041          	movff	tblptru,??_INTERRUPT_InterruptManager+8
  1728   00002E  CFF5 F042          	movff	tablat,??_INTERRUPT_InterruptManager+9
  1729   000032                     
  1730                           ;mcc_generated_files/system/src/interrupt.c: 83:     if(INTCONbits.PEIE == 1)
  1731   000032  ACF2               	btfss	242,6,c	;volatile
  1732   000034  EF1E  F000         	goto	i2u25_41
  1733   000038  EF20  F000         	goto	i2u25_40
  1734   00003C                     i2u25_41:
  1735   00003C  EF40  F000         	goto	i2l102
  1736   000040                     i2u25_40:
  1737   000040                     
  1738                           ;mcc_generated_files/system/src/interrupt.c: 84:     {;mcc_generated_files/system/src/in
      +                          terrupt.c: 85:         if(PIE2bits.BCLIE == 1 && PIR2bits.BCLIF == 1)
  1739   000040  A6A0               	btfss	160,3,c	;volatile
  1740   000042  EF25  F000         	goto	i2u26_41
  1741   000046  EF27  F000         	goto	i2u26_40
  1742   00004A                     i2u26_41:
  1743   00004A  EF30  F000         	goto	i2l1553
  1744   00004E                     i2u26_40:
  1745   00004E  A6A1               	btfss	161,3,c	;volatile
  1746   000050  EF2C  F000         	goto	i2u27_41
  1747   000054  EF2E  F000         	goto	i2u27_40
  1748   000058                     i2u27_41:
  1749   000058  EF30  F000         	goto	i2l1553
  1750   00005C                     i2u27_40:
  1751   00005C                     
  1752                           ;mcc_generated_files/system/src/interrupt.c: 86:         {;mcc_generated_files/system/sr
      +                          c/interrupt.c: 87:             I2C1_ERROR_ISR();
  1753   00005C  EC07  F00B         	call	_I2C1_ERROR_ISR	;wreg free
  1754   000060                     i2l1553:
  1755                           
  1756                           ;mcc_generated_files/system/src/interrupt.c: 89:         if(PIE1bits.SSPIE == 1 && PIR1b
      +                          its.SSPIF == 1)
  1757   000060  A69D               	btfss	157,3,c	;volatile
  1758   000062  EF35  F000         	goto	i2u28_41
  1759   000066  EF37  F000         	goto	i2u28_40
  1760   00006A                     i2u28_41:
  1761   00006A  EF40  F000         	goto	i2l102
  1762   00006E                     i2u28_40:
  1763   00006E  A69E               	btfss	158,3,c	;volatile
  1764   000070  EF3C  F000         	goto	i2u29_41
  1765   000074  EF3E  F000         	goto	i2u29_40
  1766   000078                     i2u29_41:
  1767   000078  EF40  F000         	goto	i2l102
  1768   00007C                     i2u29_40:
  1769   00007C                     
  1770                           ;mcc_generated_files/system/src/interrupt.c: 90:         {;mcc_generated_files/system/sr
      +                          c/interrupt.c: 91:             I2C1_ISR();
  1771   00007C  EC04  F00B         	call	_I2C1_ISR	;wreg free
  1772   000080                     i2l102:
  1773   000080  C042  FFF5         	movff	??_INTERRUPT_InterruptManager+9,tablat
  1774   000084  C041  FFF8         	movff	??_INTERRUPT_InterruptManager+8,tblptru
  1775   000088  C040  FFF7         	movff	??_INTERRUPT_InterruptManager+7,tblptrh
  1776   00008C  C03F  FFF6         	movff	??_INTERRUPT_InterruptManager+6,tblptrl
  1777   000090  C03E  FFF4         	movff	??_INTERRUPT_InterruptManager+5,prodh
  1778   000094  C03D  FFF3         	movff	??_INTERRUPT_InterruptManager+4,prodl
  1779   000098  C03C  FFDA         	movff	??_INTERRUPT_InterruptManager+3,fsr2h
  1780   00009C  C03B  FFD9         	movff	??_INTERRUPT_InterruptManager+2,fsr2l
  1781   0000A0  C03A  FFFB         	movff	??_INTERRUPT_InterruptManager+1,pclatu
  1782   0000A4  C039  FFFA         	movff	??_INTERRUPT_InterruptManager,pclath
  1783   0000A8  924C               	bcf	int$flags,1,c	;clear compiler interrupt flag (level 2)
  1784   0000AA  0011               	retfie		f
  1785   0000AC                     __end_of_INTERRUPT_InterruptManager:
  1786                           	callstack 0
  1787                           
  1788 ;; *************** function _I2C1_ISR *****************
  1789 ;; Defined at:
  1790 ;;		line 216 in file "mcc_generated_files/i2c_host/src/mssp.c"
  1791 ;; Parameters:    Size  Location     Type
  1792 ;;		None
  1793 ;; Auto vars:     Size  Location     Type
  1794 ;;		None
  1795 ;; Return value:  Size  Location     Type
  1796 ;;                  1    wreg      void 
  1797 ;; Registers used:
  1798 ;;		wreg, fsr2l, fsr2h, status,2, status,0, pcl, pclath, pclatu, tosl, tblptrl, tblptrh, tblptru, prodl, prodh, cstack
  1799 ;; Tracked objects:
  1800 ;;		On entry : 0/0
  1801 ;;		On exit  : 0/0
  1802 ;;		Unchanged: 0/0
  1803 ;; Data sizes:     COMRAM   BANK0   BANK1   BANK2   BANK3   BANK4   BANK5   BANK6   BANK7   BANK8   BANK9  BANK10  BANK1
      +1  BANK12  BANK13  BANK14  BANK15
  1804 ;;      Params:         0       0       0       0       0       0       0       0       0       0       0       0       
      +0       0       0       0       0
  1805 ;;      Locals:         0       0       0       0       0       0       0       0       0       0       0       0       
      +0       0       0       0       0
  1806 ;;      Temps:          0       0       0       0       0       0       0       0       0       0       0       0       
      +0       0       0       0       0
  1807 ;;      Totals:         0       0       0       0       0       0       0       0       0       0       0       0       
      +0       0       0       0       0
  1808 ;;Total ram usage:        0 bytes
  1809 ;; Hardware stack levels used: 1
  1810 ;; Hardware stack levels required when called: 5
  1811 ;; This function calls:
  1812 ;;		_I2C1_EventHandler
  1813 ;; This function is called by:
  1814 ;;		_INTERRUPT_InterruptManager
  1815 ;; This function uses a non-reentrant model
  1816 ;;
  1817                           
  1818                           	psect	text20
  1819   001608                     __ptext20:
  1820                           	callstack 0
  1821   001608                     _I2C1_ISR:
  1822                           	callstack 20
  1823   001608                     
  1824                           ;mcc_generated_files/i2c_host/src/mssp.c: 218:     I2C1_EventHandler();
  1825   001608  ECA2  F008         	call	_I2C1_EventHandler	;wreg free
  1826   00160C  0012               	return		;funcret
  1827   00160E                     __end_of_I2C1_ISR:
  1828                           	callstack 0
  1829                           
  1830 ;; *************** function _I2C1_EventHandler *****************
  1831 ;; Defined at:
  1832 ;;		line 253 in file "mcc_generated_files/i2c_host/src/mssp.c"
  1833 ;; Parameters:    Size  Location     Type
  1834 ;;		None
  1835 ;; Auto vars:     Size  Location     Type
  1836 ;;		None
  1837 ;; Return value:  Size  Location     Type
  1838 ;;                  1    wreg      void 
  1839 ;; Registers used:
  1840 ;;		wreg, fsr2l, fsr2h, status,2, status,0, pcl, pclath, pclatu, tosl, tblptrl, tblptrh, tblptru, prodl, prodh, cstack
  1841 ;; Tracked objects:
  1842 ;;		On entry : 0/0
  1843 ;;		On exit  : 0/0
  1844 ;;		Unchanged: 0/0
  1845 ;; Data sizes:     COMRAM   BANK0   BANK1   BANK2   BANK3   BANK4   BANK5   BANK6   BANK7   BANK8   BANK9  BANK10  BANK1
      +1  BANK12  BANK13  BANK14  BANK15
  1846 ;;      Params:         0       0       0       0       0       0       0       0       0       0       0       0       
      +0       0       0       0       0
  1847 ;;      Locals:         0       0       0       0       0       0       0       0       0       0       0       0       
      +0       0       0       0       0
  1848 ;;      Temps:          2       0       0       0       0       0       0       0       0       0       0       0       
      +0       0       0       0       0
  1849 ;;      Totals:         2       0       0       0       0       0       0       0       0       0       0       0       
      +0       0       0       0       0
  1850 ;;Total ram usage:        2 bytes
  1851 ;; Hardware stack levels used: 1
  1852 ;; Hardware stack levels required when called: 4
  1853 ;; This function calls:
  1854 ;;		_I2C1_EVENT_ERROR
  1855 ;;		_I2C1_EVENT_IDLE
  1856 ;;		_I2C1_EVENT_NACK
  1857 ;;		_I2C1_EVENT_RESET
  1858 ;;		_I2C1_EVENT_RX
  1859 ;;		_I2C1_EVENT_SEND_RD_ADDR
  1860 ;;		_I2C1_EVENT_SEND_WR_ADDR
  1861 ;;		_I2C1_EVENT_STOP
  1862 ;;		_I2C1_EVENT_TX
  1863 ;;		_I2C1_InterruptClear
  1864 ;;		_I2C1_IsAddr
  1865 ;;		_I2C1_IsData
  1866 ;;		_I2C1_IsNack
  1867 ;; This function is called by:
  1868 ;;		_I2C1_ISR
  1869 ;; This function uses a non-reentrant model
  1870 ;;
  1871                           
  1872                           	psect	text21
  1873   001144                     __ptext21:
  1874                           	callstack 0
  1875   001144                     _I2C1_EventHandler:
  1876                           	callstack 20
  1877   001144                     
  1878                           ;mcc_generated_files/i2c_host/src/mssp.c: 255:     I2C1_InterruptClear();
  1879   001144  EC22  F00B         	call	_I2C1_InterruptClear	;wreg free
  1880   001148                     
  1881                           ;mcc_generated_files/i2c_host/src/mssp.c: 256:     if (I2C1_IsAddr() && I2C1_IsNack())
  1882   001148  ECAA  F00A         	call	_I2C1_IsAddr	;wreg free
  1883   00114C  0900               	iorlw	0
  1884   00114E  B4D8               	btfsc	status,2,c
  1885   001150  EFAC  F008         	goto	i2u17_41
  1886   001154  EFAE  F008         	goto	i2u17_40
  1887   001158                     i2u17_41:
  1888   001158  EFBE  F008         	goto	i2l1511
  1889   00115C                     i2u17_40:
  1890   00115C  EC96  F00A         	call	_I2C1_IsNack	;wreg free
  1891   001160  0900               	iorlw	0
  1892   001162  B4D8               	btfsc	status,2,c
  1893   001164  EFB6  F008         	goto	i2u18_41
  1894   001168  EFB8  F008         	goto	i2u18_40
  1895   00116C                     i2u18_41:
  1896   00116C  EFBE  F008         	goto	i2l1511
  1897   001170                     i2u18_40:
  1898   001170                     
  1899                           ;mcc_generated_files/i2c_host/src/mssp.c: 257:     {;mcc_generated_files/i2c_host/src/ms
      +                          sp.c: 258:         i2c1Status.state = I2C_STATE_NACK;
  1900   001170  0E05               	movlw	5
  1901   001172  6E0E               	movwf	(_i2c1Status+13)^0,c	;volatile
  1902                           
  1903                           ;mcc_generated_files/i2c_host/src/mssp.c: 259:         i2c1Status.errorState = I2C_ERROR
      +                          _ADDR_NACK;
  1904   001174  0E01               	movlw	1
  1905   001176  6E0D               	movwf	(_i2c1Status+12)^0,c	;volatile
  1906                           
  1907                           ;mcc_generated_files/i2c_host/src/mssp.c: 260:     }
  1908   001178  EFD6  F008         	goto	i2l1517
  1909   00117C                     i2l1511:
  1910   00117C  ECA0  F00A         	call	_I2C1_IsData	;wreg free
  1911   001180  0900               	iorlw	0
  1912   001182  B4D8               	btfsc	status,2,c
  1913   001184  EFC6  F008         	goto	i2u19_41
  1914   001188  EFC8  F008         	goto	i2u19_40
  1915   00118C                     i2u19_41:
  1916   00118C  EFD6  F008         	goto	i2l1517
  1917   001190                     i2u19_40:
  1918   001190  EC96  F00A         	call	_I2C1_IsNack	;wreg free
  1919   001194  0900               	iorlw	0
  1920   001196  B4D8               	btfsc	status,2,c
  1921   001198  EFD0  F008         	goto	i2u20_41
  1922   00119C  EFD2  F008         	goto	i2u20_40
  1923   0011A0                     i2u20_41:
  1924   0011A0  EFD6  F008         	goto	i2l1517
  1925   0011A4                     i2u20_40:
  1926   0011A4                     
  1927                           ;mcc_generated_files/i2c_host/src/mssp.c: 262:     {;mcc_generated_files/i2c_host/src/ms
      +                          sp.c: 263:         i2c1Status.state = I2C_STATE_NACK;
  1928   0011A4  0E05               	movlw	5
  1929   0011A6  6E0E               	movwf	(_i2c1Status+13)^0,c	;volatile
  1930                           
  1931                           ;mcc_generated_files/i2c_host/src/mssp.c: 264:         i2c1Status.errorState = I2C_ERROR
      +                          _DATA_NACK;
  1932   0011A8  0E02               	movlw	2
  1933   0011AA  6E0D               	movwf	(_i2c1Status+12)^0,c	;volatile
  1934   0011AC                     i2l1517:
  1935                           
  1936                           ;mcc_generated_files/i2c_host/src/mssp.c: 266:     i2c1Status.state = i2c1_eventTable[i2
      +                          c1Status.state]();
  1937   0011AC  500E               	movf	(_i2c1Status+13)^0,w,c	;volatile
  1938   0011AE  0D02               	mullw	2
  1939   0011B0  0E45               	movlw	low _i2c1_eventTable
  1940   0011B2  24F3               	addwf	243,w,c
  1941   0011B4  6EF6               	movwf	tblptrl,c
  1942   0011B6  0E10               	movlw	high _i2c1_eventTable
  1943   0011B8  20F4               	addwfc	244,w,c
  1944   0011BA  6EF7               	movwf	tblptrh,c
  1945   0011BC                     	if	1	;There are 3 active tblptr bytes
  1946   0011BC  6AF8               	clrf	tblptru,c
  1947   0011BE  0E00               	movlw	low (__mediumconst shr (0+16))
  1948   0011C0  22F8               	addwfc	tblptru,f,c
  1949   0011C2                     	endif
  1950   0011C2  0009               	tblrd		*+
  1951   0011C4  CFF5 F037          	movff	tablat,??_I2C1_EventHandler
  1952   0011C8  0009               	tblrd		*+
  1953   0011CA  CFF5 F038          	movff	tablat,??_I2C1_EventHandler+1
  1954   0011CE  D802               	call	i2u21_48
  1955   0011D0  EFF3  F008         	goto	i2u21_49
  1956   0011D4                     i2u21_48:
  1957   0011D4  0005               	push	
  1958   0011D6  6EFA               	movwf	pclath,c
  1959   0011D8  5037               	movf	??_I2C1_EventHandler^0,w,c
  1960   0011DA  6EFD               	movwf	tosl,c
  1961   0011DC  5038               	movf	(??_I2C1_EventHandler+1)^0,w,c
  1962   0011DE  6EFE               	movwf	tosh,c
  1963   0011E0  6AFF               	clrf	tosu,c
  1964   0011E2  50FA               	movf	pclath,w,c
  1965   0011E4  0012               	return		;indir
  1966   0011E6                     i2u21_49:
  1967   0011E6  6E0E               	movwf	(_i2c1Status+13)^0,c	;volatile
  1968   0011E8  0012               	return		;funcret
  1969   0011EA                     __end_of_I2C1_EventHandler:
  1970                           	callstack 0
  1971                           
  1972 ;; *************** function _I2C1_IsNack *****************
  1973 ;; Defined at:
  1974 ;;		line 444 in file "mcc_generated_files/i2c_host/src/mssp.c"
  1975 ;; Parameters:    Size  Location     Type
  1976 ;;		None
  1977 ;; Auto vars:     Size  Location     Type
  1978 ;;		None
  1979 ;; Return value:  Size  Location     Type
  1980 ;;                  1    wreg      _Bool 
  1981 ;; Registers used:
  1982 ;;		wreg
  1983 ;; Tracked objects:
  1984 ;;		On entry : 0/0
  1985 ;;		On exit  : 0/0
  1986 ;;		Unchanged: 0/0
  1987 ;; Data sizes:     COMRAM   BANK0   BANK1   BANK2   BANK3   BANK4   BANK5   BANK6   BANK7   BANK8   BANK9  BANK10  BANK1
      +1  BANK12  BANK13  BANK14  BANK15
  1988 ;;      Params:         0       0       0       0       0       0       0       0       0       0       0       0       
      +0       0       0       0       0
  1989 ;;      Locals:         0       0       0       0       0       0       0       0       0       0       0       0       
      +0       0       0       0       0
  1990 ;;      Temps:          0       0       0       0       0       0       0       0       0       0       0       0       
      +0       0       0       0       0
  1991 ;;      Totals:         0       0       0       0       0       0       0       0       0       0       0       0       
      +0       0       0       0       0
  1992 ;;Total ram usage:        0 bytes
  1993 ;; Hardware stack levels used: 1
  1994 ;; This function calls:
  1995 ;;		Nothing
  1996 ;; This function is called by:
  1997 ;;		_I2C1_EventHandler
  1998 ;; This function uses a non-reentrant model
  1999 ;;
  2000                           
  2001                           	psect	text22
  2002   00152C                     __ptext22:
  2003                           	callstack 0
  2004   00152C                     _I2C1_IsNack:
  2005                           	callstack 23
  2006   00152C                     
  2007                           ;mcc_generated_files/i2c_host/src/mssp.c: 446:     return SSPCON2bits.ACKSTAT;
  2008   00152C  BCC5               	btfsc	197,6,c	;volatile
  2009   00152E  EF9B  F00A         	goto	i2u9_41
  2010   001532  EF9E  F00A         	goto	i2u9_40
  2011   001536                     i2u9_41:
  2012   001536  0E01               	movlw	1
  2013   001538  EF9F  F00A         	goto	i2u9_46
  2014   00153C                     i2u9_40:
  2015   00153C  0E00               	movlw	0
  2016   00153E                     i2u9_46:
  2017   00153E  0012               	return		;funcret
  2018   001540                     __end_of_I2C1_IsNack:
  2019                           	callstack 0
  2020                           
  2021 ;; *************** function _I2C1_IsData *****************
  2022 ;; Defined at:
  2023 ;;		line 449 in file "mcc_generated_files/i2c_host/src/mssp.c"
  2024 ;; Parameters:    Size  Location     Type
  2025 ;;		None
  2026 ;; Auto vars:     Size  Location     Type
  2027 ;;		None
  2028 ;; Return value:  Size  Location     Type
  2029 ;;                  1    wreg      _Bool 
  2030 ;; Registers used:
  2031 ;;		wreg
  2032 ;; Tracked objects:
  2033 ;;		On entry : 0/0
  2034 ;;		On exit  : 0/0
  2035 ;;		Unchanged: 0/0
  2036 ;; Data sizes:     COMRAM   BANK0   BANK1   BANK2   BANK3   BANK4   BANK5   BANK6   BANK7   BANK8   BANK9  BANK10  BANK1
      +1  BANK12  BANK13  BANK14  BANK15
  2037 ;;      Params:         0       0       0       0       0       0       0       0       0       0       0       0       
      +0       0       0       0       0
  2038 ;;      Locals:         0       0       0       0       0       0       0       0       0       0       0       0       
      +0       0       0       0       0
  2039 ;;      Temps:          0       0       0       0       0       0       0       0       0       0       0       0       
      +0       0       0       0       0
  2040 ;;      Totals:         0       0       0       0       0       0       0       0       0       0       0       0       
      +0       0       0       0       0
  2041 ;;Total ram usage:        0 bytes
  2042 ;; Hardware stack levels used: 1
  2043 ;; This function calls:
  2044 ;;		Nothing
  2045 ;; This function is called by:
  2046 ;;		_I2C1_EventHandler
  2047 ;; This function uses a non-reentrant model
  2048 ;;
  2049                           
  2050                           	psect	text23
  2051   001540                     __ptext23:
  2052                           	callstack 0
  2053   001540                     _I2C1_IsData:
  2054                           	callstack 23
  2055   001540                     
  2056                           ;mcc_generated_files/i2c_host/src/mssp.c: 451:     return (SSPSTATbits.D_nA);
  2057   001540  BAC7               	btfsc	199,5,c	;volatile
  2058   001542  EFA5  F00A         	goto	i2u10_41
  2059   001546  EFA8  F00A         	goto	i2u10_40
  2060   00154A                     i2u10_41:
  2061   00154A  0E01               	movlw	1
  2062   00154C  EFA9  F00A         	goto	i2u10_46
  2063   001550                     i2u10_40:
  2064   001550  0E00               	movlw	0
  2065   001552                     i2u10_46:
  2066   001552  0012               	return		;funcret
  2067   001554                     __end_of_I2C1_IsData:
  2068                           	callstack 0
  2069                           
  2070 ;; *************** function _I2C1_IsAddr *****************
  2071 ;; Defined at:
  2072 ;;		line 454 in file "mcc_generated_files/i2c_host/src/mssp.c"
  2073 ;; Parameters:    Size  Location     Type
  2074 ;;		None
  2075 ;; Auto vars:     Size  Location     Type
  2076 ;;		None
  2077 ;; Return value:  Size  Location     Type
  2078 ;;                  1    wreg      _Bool 
  2079 ;; Registers used:
  2080 ;;		wreg
  2081 ;; Tracked objects:
  2082 ;;		On entry : 0/0
  2083 ;;		On exit  : 0/0
  2084 ;;		Unchanged: 0/0
  2085 ;; Data sizes:     COMRAM   BANK0   BANK1   BANK2   BANK3   BANK4   BANK5   BANK6   BANK7   BANK8   BANK9  BANK10  BANK1
      +1  BANK12  BANK13  BANK14  BANK15
  2086 ;;      Params:         0       0       0       0       0       0       0       0       0       0       0       0       
      +0       0       0       0       0
  2087 ;;      Locals:         0       0       0       0       0       0       0       0       0       0       0       0       
      +0       0       0       0       0
  2088 ;;      Temps:          0       0       0       0       0       0       0       0       0       0       0       0       
      +0       0       0       0       0
  2089 ;;      Totals:         0       0       0       0       0       0       0       0       0       0       0       0       
      +0       0       0       0       0
  2090 ;;Total ram usage:        0 bytes
  2091 ;; Hardware stack levels used: 1
  2092 ;; This function calls:
  2093 ;;		Nothing
  2094 ;; This function is called by:
  2095 ;;		_I2C1_EventHandler
  2096 ;; This function uses a non-reentrant model
  2097 ;;
  2098                           
  2099                           	psect	text24
  2100   001554                     __ptext24:
  2101                           	callstack 0
  2102   001554                     _I2C1_IsAddr:
  2103                           	callstack 23
  2104   001554                     
  2105                           ;mcc_generated_files/i2c_host/src/mssp.c: 456:     return !(SSPSTATbits.D_nA);
  2106   001554  AAC7               	btfss	199,5,c	;volatile
  2107   001556  EFAF  F00A         	goto	i2u7_41
  2108   00155A  EFB2  F00A         	goto	i2u7_40
  2109   00155E                     i2u7_41:
  2110   00155E  0E01               	movlw	1
  2111   001560  EFB3  F00A         	goto	i2u8_40
  2112   001564                     i2u7_40:
  2113   001564  0E00               	movlw	0
  2114   001566                     i2u8_40:
  2115   001566  0012               	return		;funcret
  2116   001568                     __end_of_I2C1_IsAddr:
  2117                           	callstack 0
  2118                           
  2119 ;; *************** function _I2C1_ERROR_ISR *****************
  2120 ;; Defined at:
  2121 ;;		line 221 in file "mcc_generated_files/i2c_host/src/mssp.c"
  2122 ;; Parameters:    Size  Location     Type
  2123 ;;		None
  2124 ;; Auto vars:     Size  Location     Type
  2125 ;;		None
  2126 ;; Return value:  Size  Location     Type
  2127 ;;                  1    wreg      void 
  2128 ;; Registers used:
  2129 ;;		wreg, fsr2l, fsr2h, status,2, status,0, pcl, pclath, pclatu, tosl, tblptrl, tblptrh, tblptru, prodl, prodh, cstack
  2130 ;; Tracked objects:
  2131 ;;		On entry : 0/0
  2132 ;;		On exit  : 0/0
  2133 ;;		Unchanged: 0/0
  2134 ;; Data sizes:     COMRAM   BANK0   BANK1   BANK2   BANK3   BANK4   BANK5   BANK6   BANK7   BANK8   BANK9  BANK10  BANK1
      +1  BANK12  BANK13  BANK14  BANK15
  2135 ;;      Params:         0       0       0       0       0       0       0       0       0       0       0       0       
      +0       0       0       0       0
  2136 ;;      Locals:         0       0       0       0       0       0       0       0       0       0       0       0       
      +0       0       0       0       0
  2137 ;;      Temps:          0       0       0       0       0       0       0       0       0       0       0       0       
      +0       0       0       0       0
  2138 ;;      Totals:         0       0       0       0       0       0       0       0       0       0       0       0       
      +0       0       0       0       0
  2139 ;;Total ram usage:        0 bytes
  2140 ;; Hardware stack levels used: 1
  2141 ;; Hardware stack levels required when called: 5
  2142 ;; This function calls:
  2143 ;;		_I2C1_ErrorEventHandler
  2144 ;; This function is called by:
  2145 ;;		_INTERRUPT_InterruptManager
  2146 ;; This function uses a non-reentrant model
  2147 ;;
  2148                           
  2149                           	psect	text25
  2150   00160E                     __ptext25:
  2151                           	callstack 0
  2152   00160E                     _I2C1_ERROR_ISR:
  2153                           	callstack 20
  2154   00160E                     
  2155                           ;mcc_generated_files/i2c_host/src/mssp.c: 223:     I2C1_ErrorEventHandler();
  2156   00160E  EC2F  F009         	call	_I2C1_ErrorEventHandler	;wreg free
  2157   001612  0012               	return		;funcret
  2158   001614                     __end_of_I2C1_ERROR_ISR:
  2159                           	callstack 0
  2160                           
  2161 ;; *************** function _I2C1_ErrorEventHandler *****************
  2162 ;; Defined at:
  2163 ;;		line 269 in file "mcc_generated_files/i2c_host/src/mssp.c"
  2164 ;; Parameters:    Size  Location     Type
  2165 ;;		None
  2166 ;; Auto vars:     Size  Location     Type
  2167 ;;		None
  2168 ;; Return value:  Size  Location     Type
  2169 ;;                  1    wreg      void 
  2170 ;; Registers used:
  2171 ;;		wreg, fsr2l, fsr2h, status,2, status,0, pcl, pclath, pclatu, tosl, tblptrl, tblptrh, tblptru, prodl, prodh, cstack
  2172 ;; Tracked objects:
  2173 ;;		On entry : 0/0
  2174 ;;		On exit  : 0/0
  2175 ;;		Unchanged: 0/0
  2176 ;; Data sizes:     COMRAM   BANK0   BANK1   BANK2   BANK3   BANK4   BANK5   BANK6   BANK7   BANK8   BANK9  BANK10  BANK1
      +1  BANK12  BANK13  BANK14  BANK15
  2177 ;;      Params:         0       0       0       0       0       0       0       0       0       0       0       0       
      +0       0       0       0       0
  2178 ;;      Locals:         0       0       0       0       0       0       0       0       0       0       0       0       
      +0       0       0       0       0
  2179 ;;      Temps:          2       0       0       0       0       0       0       0       0       0       0       0       
      +0       0       0       0       0
  2180 ;;      Totals:         2       0       0       0       0       0       0       0       0       0       0       0       
      +0       0       0       0       0
  2181 ;;Total ram usage:        2 bytes
  2182 ;; Hardware stack levels used: 1
  2183 ;; Hardware stack levels required when called: 4
  2184 ;; This function calls:
  2185 ;;		NULL
  2186 ;;		_I2C1_DefaultCallback
  2187 ;;		_I2C1_EVENT_ERROR
  2188 ;;		_I2C1_EVENT_IDLE
  2189 ;;		_I2C1_EVENT_NACK
  2190 ;;		_I2C1_EVENT_RESET
  2191 ;;		_I2C1_EVENT_RX
  2192 ;;		_I2C1_EVENT_SEND_RD_ADDR
  2193 ;;		_I2C1_EVENT_SEND_WR_ADDR
  2194 ;;		_I2C1_EVENT_STOP
  2195 ;;		_I2C1_EVENT_TX
  2196 ;;		_I2C1_ErrorInterruptClear
  2197 ;; This function is called by:
  2198 ;;		_I2C1_ERROR_ISR
  2199 ;; This function uses a non-reentrant model
  2200 ;;
  2201                           
  2202                           	psect	text26
  2203   00125E                     __ptext26:
  2204                           	callstack 0
  2205   00125E                     _I2C1_ErrorEventHandler:
  2206                           	callstack 20
  2207   00125E                     
  2208                           ;mcc_generated_files/i2c_host/src/mssp.c: 271:     i2c1Status.state = I2C_STATE_ERROR;
  2209   00125E  0E06               	movlw	6
  2210   001260  6E0E               	movwf	(_i2c1Status+13)^0,c	;volatile
  2211                           
  2212                           ;mcc_generated_files/i2c_host/src/mssp.c: 272:     i2c1Status.errorState = I2C_ERROR_BUS
      +                          _COLLISION;
  2213   001262  0E03               	movlw	3
  2214   001264  6E0D               	movwf	(_i2c1Status+12)^0,c	;volatile
  2215   001266                     
  2216                           ;mcc_generated_files/i2c_host/src/mssp.c: 273:     I2C1_ErrorInterruptClear();
  2217   001266  EC24  F00B         	call	_I2C1_ErrorInterruptClear	;wreg free
  2218   00126A                     
  2219                           ;mcc_generated_files/i2c_host/src/mssp.c: 274:     i2c1Status.state = i2c1_eventTable[i2
      +                          c1Status.state]();
  2220   00126A  500E               	movf	(_i2c1Status+13)^0,w,c	;volatile
  2221   00126C  0D02               	mullw	2
  2222   00126E  0E45               	movlw	low _i2c1_eventTable
  2223   001270  24F3               	addwf	243,w,c
  2224   001272  6EF6               	movwf	tblptrl,c
  2225   001274  0E10               	movlw	high _i2c1_eventTable
  2226   001276  20F4               	addwfc	244,w,c
  2227   001278  6EF7               	movwf	tblptrh,c
  2228   00127A                     	if	1	;There are 3 active tblptr bytes
  2229   00127A  6AF8               	clrf	tblptru,c
  2230   00127C  0E00               	movlw	low (__mediumconst shr (0+16))
  2231   00127E  22F8               	addwfc	tblptru,f,c
  2232   001280                     	endif
  2233   001280  0009               	tblrd		*+
  2234   001282  CFF5 F037          	movff	tablat,??_I2C1_ErrorEventHandler
  2235   001286  0009               	tblrd		*+
  2236   001288  CFF5 F038          	movff	tablat,??_I2C1_ErrorEventHandler+1
  2237   00128C  D802               	call	i2u22_48
  2238   00128E  EF52  F009         	goto	i2u22_49
  2239   001292                     i2u22_48:
  2240   001292  0005               	push	
  2241   001294  6EFA               	movwf	pclath,c
  2242   001296  5037               	movf	??_I2C1_ErrorEventHandler^0,w,c
  2243   001298  6EFD               	movwf	tosl,c
  2244   00129A  5038               	movf	(??_I2C1_ErrorEventHandler+1)^0,w,c
  2245   00129C  6EFE               	movwf	tosh,c
  2246   00129E  6AFF               	clrf	tosu,c
  2247   0012A0  50FA               	movf	pclath,w,c
  2248   0012A2  0012               	return		;indir
  2249   0012A4                     i2u22_49:
  2250   0012A4  6E0E               	movwf	(_i2c1Status+13)^0,c	;volatile
  2251   0012A6                     
  2252                           ;mcc_generated_files/i2c_host/src/mssp.c: 275:     I2C1_Callback();
  2253   0012A6  D802               	call	i2u23_48
  2254   0012A8  EF5F  F009         	goto	i2u23_49
  2255   0012AC                     i2u23_48:
  2256   0012AC  0005               	push	
  2257   0012AE  6EFA               	movwf	pclath,c
  2258   0012B0  5027               	movf	_I2C1_Callback^0,w,c
  2259   0012B2  6EFD               	movwf	tosl,c
  2260   0012B4  5028               	movf	(_I2C1_Callback+1)^0,w,c
  2261   0012B6  6EFE               	movwf	tosh,c
  2262   0012B8  6AFF               	clrf	tosu,c
  2263   0012BA  50FA               	movf	pclath,w,c
  2264   0012BC  0012               	return		;indir
  2265   0012BE                     i2u23_49:
  2266   0012BE  0012               	return		;funcret
  2267   0012C0                     __end_of_I2C1_ErrorEventHandler:
  2268                           	callstack 0
  2269                           
  2270 ;; *************** function _I2C1_EVENT_RESET *****************
  2271 ;; Defined at:
  2272 ;;		line 381 in file "mcc_generated_files/i2c_host/src/mssp.c"
  2273 ;; Parameters:    Size  Location     Type
  2274 ;;		None
  2275 ;; Auto vars:     Size  Location     Type
  2276 ;;		None
  2277 ;; Return value:  Size  Location     Type
  2278 ;;                  1    wreg      enum E3052
  2279 ;; Registers used:
  2280 ;;		wreg, status,2, cstack
  2281 ;; Tracked objects:
  2282 ;;		On entry : 0/0
  2283 ;;		On exit  : 0/0
  2284 ;;		Unchanged: 0/0
  2285 ;; Data sizes:     COMRAM   BANK0   BANK1   BANK2   BANK3   BANK4   BANK5   BANK6   BANK7   BANK8   BANK9  BANK10  BANK1
      +1  BANK12  BANK13  BANK14  BANK15
  2286 ;;      Params:         0       0       0       0       0       0       0       0       0       0       0       0       
      +0       0       0       0       0
  2287 ;;      Locals:         0       0       0       0       0       0       0       0       0       0       0       0       
      +0       0       0       0       0
  2288 ;;      Temps:          0       0       0       0       0       0       0       0       0       0       0       0       
      +0       0       0       0       0
  2289 ;;      Totals:         0       0       0       0       0       0       0       0       0       0       0       0       
      +0       0       0       0       0
  2290 ;;Total ram usage:        0 bytes
  2291 ;; Hardware stack levels used: 1
  2292 ;; Hardware stack levels required when called: 1
  2293 ;; This function calls:
  2294 ;;		_I2C1_BusReset
  2295 ;; This function is called by:
  2296 ;;		_I2C1_EVENT_ERROR
  2297 ;;		_I2C1_EventHandler
  2298 ;;		_I2C1_ErrorEventHandler
  2299 ;; This function uses a non-reentrant model
  2300 ;;
  2301                           
  2302                           	psect	text27
  2303   00157C                     __ptext27:
  2304                           	callstack 0
  2305   00157C                     _I2C1_EVENT_RESET:
  2306                           	callstack 22
  2307   00157C                     
  2308                           ;mcc_generated_files/i2c_host/src/mssp.c: 383:     I2C1_BusReset();
  2309   00157C  EC13  F00B         	call	_I2C1_BusReset	;wreg free
  2310   001580                     
  2311                           ;mcc_generated_files/i2c_host/src/mssp.c: 384:     i2c1Status.busy = 0;
  2312   001580  0E00               	movlw	0
  2313   001582  6E01               	movwf	_i2c1Status^0,c	;volatile
  2314   001584                     
  2315                           ;mcc_generated_files/i2c_host/src/mssp.c: 385:     return I2C_STATE_IDLE;
  2316   001584  0E00               	movlw	0
  2317   001586  0012               	return		;funcret
  2318   001588                     __end_of_I2C1_EVENT_RESET:
  2319                           	callstack 0
  2320                           
  2321 ;; *************** function _I2C1_EVENT_STOP *****************
  2322 ;; Defined at:
  2323 ;;		line 374 in file "mcc_generated_files/i2c_host/src/mssp.c"
  2324 ;; Parameters:    Size  Location     Type
  2325 ;;		None
  2326 ;; Auto vars:     Size  Location     Type
  2327 ;;		None
  2328 ;; Return value:  Size  Location     Type
  2329 ;;                  1    wreg      enum E3052
  2330 ;; Registers used:
  2331 ;;		wreg, status,2, status,0, cstack
  2332 ;; Tracked objects:
  2333 ;;		On entry : 0/0
  2334 ;;		On exit  : 0/0
  2335 ;;		Unchanged: 0/0
  2336 ;; Data sizes:     COMRAM   BANK0   BANK1   BANK2   BANK3   BANK4   BANK5   BANK6   BANK7   BANK8   BANK9  BANK10  BANK1
      +1  BANK12  BANK13  BANK14  BANK15
  2337 ;;      Params:         0       0       0       0       0       0       0       0       0       0       0       0       
      +0       0       0       0       0
  2338 ;;      Locals:         0       0       0       0       0       0       0       0       0       0       0       0       
      +0       0       0       0       0
  2339 ;;      Temps:          0       0       0       0       0       0       0       0       0       0       0       0       
      +0       0       0       0       0
  2340 ;;      Totals:         0       0       0       0       0       0       0       0       0       0       0       0       
      +0       0       0       0       0
  2341 ;;Total ram usage:        0 bytes
  2342 ;; Hardware stack levels used: 1
  2343 ;; Hardware stack levels required when called: 2
  2344 ;; This function calls:
  2345 ;;		_I2C1_Close
  2346 ;;		_I2C1_StopSend
  2347 ;; This function is called by:
  2348 ;;		_I2C1_EVENT_TX
  2349 ;;		_I2C1_EVENT_NACK
  2350 ;;		_I2C1_EventHandler
  2351 ;;		_I2C1_ErrorEventHandler
  2352 ;; This function uses a non-reentrant model
  2353 ;;
  2354                           
  2355                           	psect	text28
  2356   001588                     __ptext28:
  2357                           	callstack 0
  2358   001588                     _I2C1_EVENT_STOP:
  2359                           	callstack 20
  2360   001588                     
  2361                           ;mcc_generated_files/i2c_host/src/mssp.c: 376:     I2C1_StopSend();
  2362   001588  EC20  F00B         	call	_I2C1_StopSend	;wreg free
  2363   00158C                     
  2364                           ;mcc_generated_files/i2c_host/src/mssp.c: 377:     I2C1_Close();
  2365   00158C  EC08  F00A         	call	_I2C1_Close	;wreg free
  2366   001590                     
  2367                           ;mcc_generated_files/i2c_host/src/mssp.c: 378:     return I2C_STATE_IDLE;
  2368   001590  0E00               	movlw	0
  2369   001592  0012               	return		;funcret
  2370   001594                     __end_of_I2C1_EVENT_STOP:
  2371                           	callstack 0
  2372                           
  2373 ;; *************** function _I2C1_EVENT_ERROR *****************
  2374 ;; Defined at:
  2375 ;;		line 367 in file "mcc_generated_files/i2c_host/src/mssp.c"
  2376 ;; Parameters:    Size  Location     Type
  2377 ;;		None
  2378 ;; Auto vars:     Size  Location     Type
  2379 ;;  retEventStat    1    0[COMRAM] enum E3052
  2380 ;; Return value:  Size  Location     Type
  2381 ;;                  1    wreg      enum E3052
  2382 ;; Registers used:
  2383 ;;		wreg, status,2, cstack
  2384 ;; Tracked objects:
  2385 ;;		On entry : 0/0
  2386 ;;		On exit  : 0/0
  2387 ;;		Unchanged: 0/0
  2388 ;; Data sizes:     COMRAM   BANK0   BANK1   BANK2   BANK3   BANK4   BANK5   BANK6   BANK7   BANK8   BANK9  BANK10  BANK1
      +1  BANK12  BANK13  BANK14  BANK15
  2389 ;;      Params:         0       0       0       0       0       0       0       0       0       0       0       0       
      +0       0       0       0       0
  2390 ;;      Locals:         1       0       0       0       0       0       0       0       0       0       0       0       
      +0       0       0       0       0
  2391 ;;      Temps:          0       0       0       0       0       0       0       0       0       0       0       0       
      +0       0       0       0       0
  2392 ;;      Totals:         1       0       0       0       0       0       0       0       0       0       0       0       
      +0       0       0       0       0
  2393 ;;Total ram usage:        1 bytes
  2394 ;; Hardware stack levels used: 1
  2395 ;; Hardware stack levels required when called: 2
  2396 ;; This function calls:
  2397 ;;		_I2C1_EVENT_RESET
  2398 ;; This function is called by:
  2399 ;;		_I2C1_EventHandler
  2400 ;;		_I2C1_ErrorEventHandler
  2401 ;; This function uses a non-reentrant model
  2402 ;;
  2403                           
  2404                           	psect	text29
  2405   0015DE                     __ptext29:
  2406                           	callstack 0
  2407   0015DE                     _I2C1_EVENT_ERROR:
  2408                           	callstack 21
  2409   0015DE                     
  2410                           ;mcc_generated_files/i2c_host/src/mssp.c: 370:     retEventState = I2C1_EVENT_RESET();
  2411   0015DE  ECBE  F00A         	call	_I2C1_EVENT_RESET	;wreg free
  2412   0015E2  6E35               	movwf	I2C1_EVENT_ERROR@retEventState^0,c
  2413   0015E4                     
  2414                           ;mcc_generated_files/i2c_host/src/mssp.c: 371:     return retEventState;
  2415   0015E4  5035               	movf	I2C1_EVENT_ERROR@retEventState^0,w,c
  2416   0015E6  0012               	return		;funcret
  2417   0015E8                     __end_of_I2C1_EVENT_ERROR:
  2418                           	callstack 0
  2419                           
  2420 ;; *************** function _I2C1_EVENT_NACK *****************
  2421 ;; Defined at:
  2422 ;;		line 360 in file "mcc_generated_files/i2c_host/src/mssp.c"
  2423 ;; Parameters:    Size  Location     Type
  2424 ;;		None
  2425 ;; Auto vars:     Size  Location     Type
  2426 ;;  retEventStat    1    0[COMRAM] enum E3052
  2427 ;; Return value:  Size  Location     Type
  2428 ;;                  1    wreg      enum E3052
  2429 ;; Registers used:
  2430 ;;		wreg, status,2, status,0, cstack
  2431 ;; Tracked objects:
  2432 ;;		On entry : 0/0
  2433 ;;		On exit  : 0/0
  2434 ;;		Unchanged: 0/0
  2435 ;; Data sizes:     COMRAM   BANK0   BANK1   BANK2   BANK3   BANK4   BANK5   BANK6   BANK7   BANK8   BANK9  BANK10  BANK1
      +1  BANK12  BANK13  BANK14  BANK15
  2436 ;;      Params:         0       0       0       0       0       0       0       0       0       0       0       0       
      +0       0       0       0       0
  2437 ;;      Locals:         1       0       0       0       0       0       0       0       0       0       0       0       
      +0       0       0       0       0
  2438 ;;      Temps:          0       0       0       0       0       0       0       0       0       0       0       0       
      +0       0       0       0       0
  2439 ;;      Totals:         1       0       0       0       0       0       0       0       0       0       0       0       
      +0       0       0       0       0
  2440 ;;Total ram usage:        1 bytes
  2441 ;; Hardware stack levels used: 1
  2442 ;; Hardware stack levels required when called: 3
  2443 ;; This function calls:
  2444 ;;		_I2C1_EVENT_STOP
  2445 ;; This function is called by:
  2446 ;;		_I2C1_EventHandler
  2447 ;;		_I2C1_ErrorEventHandler
  2448 ;; This function uses a non-reentrant model
  2449 ;;
  2450                           
  2451                           	psect	text30
  2452   0015E8                     __ptext30:
  2453                           	callstack 0
  2454   0015E8                     _I2C1_EVENT_NACK:
  2455                           	callstack 20
  2456   0015E8                     
  2457                           ;mcc_generated_files/i2c_host/src/mssp.c: 363:     retEventState = I2C1_EVENT_STOP();
  2458   0015E8  ECC4  F00A         	call	_I2C1_EVENT_STOP	;wreg free
  2459   0015EC  6E35               	movwf	I2C1_EVENT_NACK@retEventState^0,c
  2460   0015EE                     
  2461                           ;mcc_generated_files/i2c_host/src/mssp.c: 364:     return retEventState;
  2462   0015EE  5035               	movf	I2C1_EVENT_NACK@retEventState^0,w,c
  2463   0015F0  0012               	return		;funcret
  2464   0015F2                     __end_of_I2C1_EVENT_NACK:
  2465                           	callstack 0
  2466                           
  2467 ;; *************** function _I2C1_EVENT_RX *****************
  2468 ;; Defined at:
  2469 ;;		line 328 in file "mcc_generated_files/i2c_host/src/mssp.c"
  2470 ;; Parameters:    Size  Location     Type
  2471 ;;		None
  2472 ;; Auto vars:     Size  Location     Type
  2473 ;;  retEventStat    1    0[COMRAM] enum E3052
  2474 ;; Return value:  Size  Location     Type
  2475 ;;                  1    wreg      enum E3052
  2476 ;; Registers used:
  2477 ;;		wreg, fsr2l, fsr2h, status,2, status,0, cstack
  2478 ;; Tracked objects:
  2479 ;;		On entry : 0/0
  2480 ;;		On exit  : 0/0
  2481 ;;		Unchanged: 0/0
  2482 ;; Data sizes:     COMRAM   BANK0   BANK1   BANK2   BANK3   BANK4   BANK5   BANK6   BANK7   BANK8   BANK9  BANK10  BANK1
      +1  BANK12  BANK13  BANK14  BANK15
  2483 ;;      Params:         0       0       0       0       0       0       0       0       0       0       0       0       
      +0       0       0       0       0
  2484 ;;      Locals:         1       0       0       0       0       0       0       0       0       0       0       0       
      +0       0       0       0       0
  2485 ;;      Temps:          0       0       0       0       0       0       0       0       0       0       0       0       
      +0       0       0       0       0
  2486 ;;      Totals:         1       0       0       0       0       0       0       0       0       0       0       0       
      +0       0       0       0       0
  2487 ;;Total ram usage:        1 bytes
  2488 ;; Hardware stack levels used: 1
  2489 ;; Hardware stack levels required when called: 1
  2490 ;; This function calls:
  2491 ;;		_I2C1_AckSend
  2492 ;;		_I2C1_DataReceive
  2493 ;;		_I2C1_IsRxBufFull
  2494 ;;		_I2C1_NackSend
  2495 ;;		_I2C1_ReceiveEnable
  2496 ;;		_I2C1_RestartDisable
  2497 ;; This function is called by:
  2498 ;;		_I2C1_EventHandler
  2499 ;;		_I2C1_ErrorEventHandler
  2500 ;; This function uses a non-reentrant model
  2501 ;;
  2502                           
  2503                           	psect	text31
  2504   0011EA                     __ptext31:
  2505                           	callstack 0
  2506   0011EA                     _I2C1_EVENT_RX:
  2507                           	callstack 22
  2508   0011EA                     
  2509                           ;mcc_generated_files/i2c_host/src/mssp.c: 330:     i2c_host_event_states_t retEventState
      +                           = I2C_STATE_RX;
  2510   0011EA  0E04               	movlw	4
  2511   0011EC  6E35               	movwf	I2C1_EVENT_RX@retEventState^0,c
  2512   0011EE                     
  2513                           ;mcc_generated_files/i2c_host/src/mssp.c: 332:     if (I2C1_IsRxBufFull())
  2514   0011EE  ECB4  F00A         	call	_I2C1_IsRxBufFull	;wreg free
  2515   0011F2  0900               	iorlw	0
  2516   0011F4  B4D8               	btfsc	status,2,c
  2517   0011F6  EFFF  F008         	goto	i2u13_41
  2518   0011FA  EF01  F009         	goto	i2u13_40
  2519   0011FE                     i2u13_41:
  2520   0011FE  EF2B  F009         	goto	i2l1421
  2521   001202                     i2u13_40:
  2522   001202                     
  2523                           ;mcc_generated_files/i2c_host/src/mssp.c: 333:     {;mcc_generated_files/i2c_host/src/ms
      +                          sp.c: 334:         if (i2c1Status.readLength > 0)
  2524   001202  500A               	movf	(_i2c1Status+9)^0,w,c	;volatile
  2525   001204  100B               	iorwf	(_i2c1Status+10)^0,w,c	;volatile
  2526   001206  B4D8               	btfsc	status,2,c
  2527   001208  EF08  F009         	goto	i2u14_41
  2528   00120C  EF0A  F009         	goto	i2u14_40
  2529   001210                     i2u14_41:
  2530   001210  EF16  F009         	goto	i2l1413
  2531   001214                     i2u14_40:
  2532   001214                     
  2533                           ;mcc_generated_files/i2c_host/src/mssp.c: 335:         {;mcc_generated_files/i2c_host/sr
      +                          c/mssp.c: 336:             *i2c1Status.readPtr++ = I2C1_DataReceive();
  2534   001214  EC1E  F00B         	call	_I2C1_DataReceive	;wreg free
  2535   001218  C008  FFD9         	movff	_i2c1Status+7,fsr2l	;volatile
  2536   00121C  C009  FFDA         	movff	_i2c1Status+8,fsr2h	;volatile
  2537   001220  6EDF               	movwf	indf2,c
  2538   001222  4A08               	infsnz	(_i2c1Status+7)^0,f,c	;volatile
  2539   001224  2A09               	incf	(_i2c1Status+8)^0,f,c	;volatile
  2540   001226                     
  2541                           ;mcc_generated_files/i2c_host/src/mssp.c: 337:             i2c1Status.readLength--;
  2542   001226  060A               	decf	(_i2c1Status+9)^0,f,c	;volatile
  2543   001228  A0D8               	btfss	status,0,c
  2544   00122A  060B               	decf	(_i2c1Status+10)^0,f,c	;volatile
  2545   00122C                     i2l1413:
  2546                           
  2547                           ;mcc_generated_files/i2c_host/src/mssp.c: 341:         if (i2c1Status.readLength > 0)
  2548   00122C  500A               	movf	(_i2c1Status+9)^0,w,c	;volatile
  2549   00122E  100B               	iorwf	(_i2c1Status+10)^0,w,c	;volatile
  2550   001230  B4D8               	btfsc	status,2,c
  2551   001232  EF1D  F009         	goto	i2u15_41
  2552   001236  EF1F  F009         	goto	i2u15_40
  2553   00123A                     i2u15_41:
  2554   00123A  EF23  F009         	goto	i2l1417
  2555   00123E                     i2u15_40:
  2556   00123E                     
  2557                           ;mcc_generated_files/i2c_host/src/mssp.c: 342:         {;mcc_generated_files/i2c_host/sr
      +                          c/mssp.c: 343:             I2C1_AckSend();
  2558   00123E  EC0D  F00B         	call	_I2C1_AckSend	;wreg free
  2559                           
  2560                           ;mcc_generated_files/i2c_host/src/mssp.c: 344:         }
  2561   001242  EF2D  F009         	goto	i2l1423
  2562   001246                     i2l1417:
  2563                           
  2564                           ;mcc_generated_files/i2c_host/src/mssp.c: 346:         {;mcc_generated_files/i2c_host/sr
      +                          c/mssp.c: 347:             I2C1_RestartDisable();
  2565   001246  EC1A  F00B         	call	_I2C1_RestartDisable	;wreg free
  2566                           
  2567                           ;mcc_generated_files/i2c_host/src/mssp.c: 348:             I2C1_NackSend();
  2568   00124A  EC0A  F00B         	call	_I2C1_NackSend	;wreg free
  2569   00124E                     
  2570                           ;mcc_generated_files/i2c_host/src/mssp.c: 349:             retEventState = I2C_STATE_STO
      +                          P;
  2571   00124E  0E07               	movlw	7
  2572   001250  6E35               	movwf	I2C1_EVENT_RX@retEventState^0,c
  2573   001252  EF2D  F009         	goto	i2l1423
  2574   001256                     i2l1421:
  2575                           
  2576                           ;mcc_generated_files/i2c_host/src/mssp.c: 354:     {;mcc_generated_files/i2c_host/src/ms
      +                          sp.c: 355:         I2C1_ReceiveEnable();
  2577   001256  EC1C  F00B         	call	_I2C1_ReceiveEnable	;wreg free
  2578   00125A                     i2l1423:
  2579                           
  2580                           ;mcc_generated_files/i2c_host/src/mssp.c: 357:     return retEventState;
  2581   00125A  5035               	movf	I2C1_EVENT_RX@retEventState^0,w,c
  2582   00125C  0012               	return		;funcret
  2583   00125E                     __end_of_I2C1_EVENT_RX:
  2584                           	callstack 0
  2585                           
  2586 ;; *************** function _I2C1_EVENT_SEND_WR_ADDR *****************
  2587 ;; Defined at:
  2588 ;;		line 296 in file "mcc_generated_files/i2c_host/src/mssp.c"
  2589 ;; Parameters:    Size  Location     Type
  2590 ;;		None
  2591 ;; Auto vars:     Size  Location     Type
  2592 ;;		None
  2593 ;; Return value:  Size  Location     Type
  2594 ;;                  1    wreg      enum E3052
  2595 ;; Registers used:
  2596 ;;		wreg, status,2, status,0, cstack
  2597 ;; Tracked objects:
  2598 ;;		On entry : 0/0
  2599 ;;		On exit  : 0/0
  2600 ;;		Unchanged: 0/0
  2601 ;; Data sizes:     COMRAM   BANK0   BANK1   BANK2   BANK3   BANK4   BANK5   BANK6   BANK7   BANK8   BANK9  BANK10  BANK1
      +1  BANK12  BANK13  BANK14  BANK15
  2602 ;;      Params:         0       0       0       0       0       0       0       0       0       0       0       0       
      +0       0       0       0       0
  2603 ;;      Locals:         0       0       0       0       0       0       0       0       0       0       0       0       
      +0       0       0       0       0
  2604 ;;      Temps:          0       0       0       0       0       0       0       0       0       0       0       0       
      +0       0       0       0       0
  2605 ;;      Totals:         0       0       0       0       0       0       0       0       0       0       0       0       
      +0       0       0       0       0
  2606 ;;Total ram usage:        0 bytes
  2607 ;; Hardware stack levels used: 1
  2608 ;; Hardware stack levels required when called: 1
  2609 ;; This function calls:
  2610 ;;		_I2C1_DataTransmit
  2611 ;; This function is called by:
  2612 ;;		_I2C1_EventHandler
  2613 ;;		_I2C1_ErrorEventHandler
  2614 ;; This function uses a non-reentrant model
  2615 ;;
  2616                           
  2617                           	psect	text32
  2618   001594                     __ptext32:
  2619                           	callstack 0
  2620   001594                     _I2C1_EVENT_SEND_WR_ADDR:
  2621                           	callstack 22
  2622   001594                     
  2623                           ;mcc_generated_files/i2c_host/src/mssp.c: 298:     I2C1_DataTransmit((uint8_t) (i2c1Stat
      +                          us.address << 1));
  2624   001594  5002               	movf	(_i2c1Status+1)^0,w,c	;volatile
  2625   001596  2402               	addwf	(_i2c1Status+1)^0,w,c	;volatile
  2626   001598  ECFD  F00A         	call	_I2C1_DataTransmit
  2627   00159C                     
  2628                           ;mcc_generated_files/i2c_host/src/mssp.c: 299:     return I2C_STATE_TX;
  2629   00159C  0E03               	movlw	3
  2630   00159E  0012               	return		;funcret
  2631   0015A0                     __end_of_I2C1_EVENT_SEND_WR_ADDR:
  2632                           	callstack 0
  2633                           
  2634 ;; *************** function _I2C1_EVENT_SEND_RD_ADDR *****************
  2635 ;; Defined at:
  2636 ;;		line 290 in file "mcc_generated_files/i2c_host/src/mssp.c"
  2637 ;; Parameters:    Size  Location     Type
  2638 ;;		None
  2639 ;; Auto vars:     Size  Location     Type
  2640 ;;		None
  2641 ;; Return value:  Size  Location     Type
  2642 ;;                  1    wreg      enum E3052
  2643 ;; Registers used:
  2644 ;;		wreg, status,0, cstack
  2645 ;; Tracked objects:
  2646 ;;		On entry : 0/0
  2647 ;;		On exit  : 0/0
  2648 ;;		Unchanged: 0/0
  2649 ;; Data sizes:     COMRAM   BANK0   BANK1   BANK2   BANK3   BANK4   BANK5   BANK6   BANK7   BANK8   BANK9  BANK10  BANK1
      +1  BANK12  BANK13  BANK14  BANK15
  2650 ;;      Params:         0       0       0       0       0       0       0       0       0       0       0       0       
      +0       0       0       0       0
  2651 ;;      Locals:         0       0       0       0       0       0       0       0       0       0       0       0       
      +0       0       0       0       0
  2652 ;;      Temps:          0       0       0       0       0       0       0       0       0       0       0       0       
      +0       0       0       0       0
  2653 ;;      Totals:         0       0       0       0       0       0       0       0       0       0       0       0       
      +0       0       0       0       0
  2654 ;;Total ram usage:        0 bytes
  2655 ;; Hardware stack levels used: 1
  2656 ;; Hardware stack levels required when called: 1
  2657 ;; This function calls:
  2658 ;;		_I2C1_DataTransmit
  2659 ;; This function is called by:
  2660 ;;		_I2C1_EventHandler
  2661 ;;		_I2C1_ErrorEventHandler
  2662 ;; This function uses a non-reentrant model
  2663 ;;
  2664                           
  2665                           	psect	text33
  2666   0015A0                     __ptext33:
  2667                           	callstack 0
  2668   0015A0                     _I2C1_EVENT_SEND_RD_ADDR:
  2669                           	callstack 22
  2670   0015A0                     
  2671                           ;mcc_generated_files/i2c_host/src/mssp.c: 292:     I2C1_DataTransmit((uint8_t) (i2c1Stat
      +                          us.address << 1 | 1));
  2672   0015A0  80D8               	bsf	status,0,c
  2673   0015A2  3402               	rlcf	(_i2c1Status+1)^0,w,c	;volatile
  2674   0015A4  ECFD  F00A         	call	_I2C1_DataTransmit
  2675   0015A8                     
  2676                           ;mcc_generated_files/i2c_host/src/mssp.c: 293:     return I2C_STATE_RX;
  2677   0015A8  0E04               	movlw	4
  2678   0015AA  0012               	return		;funcret
  2679   0015AC                     __end_of_I2C1_EVENT_SEND_RD_ADDR:
  2680                           	callstack 0
  2681                           
  2682 ;; *************** function _I2C1_EVENT_IDLE *****************
  2683 ;; Defined at:
  2684 ;;		line 284 in file "mcc_generated_files/i2c_host/src/mssp.c"
  2685 ;; Parameters:    Size  Location     Type
  2686 ;;		None
  2687 ;; Auto vars:     Size  Location     Type
  2688 ;;		None
  2689 ;; Return value:  Size  Location     Type
  2690 ;;                  1    wreg      enum E3052
  2691 ;; Registers used:
  2692 ;;		wreg, status,2
  2693 ;; Tracked objects:
  2694 ;;		On entry : 0/0
  2695 ;;		On exit  : 0/0
  2696 ;;		Unchanged: 0/0
  2697 ;; Data sizes:     COMRAM   BANK0   BANK1   BANK2   BANK3   BANK4   BANK5   BANK6   BANK7   BANK8   BANK9  BANK10  BANK1
      +1  BANK12  BANK13  BANK14  BANK15
  2698 ;;      Params:         0       0       0       0       0       0       0       0       0       0       0       0       
      +0       0       0       0       0
  2699 ;;      Locals:         0       0       0       0       0       0       0       0       0       0       0       0       
      +0       0       0       0       0
  2700 ;;      Temps:          0       0       0       0       0       0       0       0       0       0       0       0       
      +0       0       0       0       0
  2701 ;;      Totals:         0       0       0       0       0       0       0       0       0       0       0       0       
      +0       0       0       0       0
  2702 ;;Total ram usage:        0 bytes
  2703 ;; Hardware stack levels used: 1
  2704 ;; This function calls:
  2705 ;;		Nothing
  2706 ;; This function is called by:
  2707 ;;		_I2C1_EventHandler
  2708 ;;		_I2C1_ErrorEventHandler
  2709 ;; This function uses a non-reentrant model
  2710 ;;
  2711                           
  2712                           	psect	text34
  2713   0015F2                     __ptext34:
  2714                           	callstack 0
  2715   0015F2                     _I2C1_EVENT_IDLE:
  2716                           	callstack 23
  2717   0015F2                     
  2718                           ;mcc_generated_files/i2c_host/src/mssp.c: 286:     i2c1Status.busy = 0;
  2719   0015F2  0E00               	movlw	0
  2720   0015F4  6E01               	movwf	_i2c1Status^0,c	;volatile
  2721   0015F6                     
  2722                           ;mcc_generated_files/i2c_host/src/mssp.c: 287:     return I2C_STATE_RESET;
  2723   0015F6  0E08               	movlw	8
  2724   0015F8  0012               	return		;funcret
  2725   0015FA                     __end_of_I2C1_EVENT_IDLE:
  2726                           	callstack 0
  2727                           
  2728 ;; *************** function _I2C1_EVENT_TX *****************
  2729 ;; Defined at:
  2730 ;;		line 302 in file "mcc_generated_files/i2c_host/src/mssp.c"
  2731 ;; Parameters:    Size  Location     Type
  2732 ;;		None
  2733 ;; Auto vars:     Size  Location     Type
  2734 ;;  retEventStat    1    1[COMRAM] enum E3052
  2735 ;; Return value:  Size  Location     Type
  2736 ;;                  1    wreg      enum E3052
  2737 ;; Registers used:
  2738 ;;		wreg, fsr2l, fsr2h, status,2, status,0, cstack
  2739 ;; Tracked objects:
  2740 ;;		On entry : 0/0
  2741 ;;		On exit  : 0/0
  2742 ;;		Unchanged: 0/0
  2743 ;; Data sizes:     COMRAM   BANK0   BANK1   BANK2   BANK3   BANK4   BANK5   BANK6   BANK7   BANK8   BANK9  BANK10  BANK1
      +1  BANK12  BANK13  BANK14  BANK15
  2744 ;;      Params:         0       0       0       0       0       0       0       0       0       0       0       0       
      +0       0       0       0       0
  2745 ;;      Locals:         1       0       0       0       0       0       0       0       0       0       0       0       
      +0       0       0       0       0
  2746 ;;      Temps:          0       0       0       0       0       0       0       0       0       0       0       0       
      +0       0       0       0       0
  2747 ;;      Totals:         1       0       0       0       0       0       0       0       0       0       0       0       
      +0       0       0       0       0
  2748 ;;Total ram usage:        1 bytes
  2749 ;; Hardware stack levels used: 1
  2750 ;; Hardware stack levels required when called: 3
  2751 ;; This function calls:
  2752 ;;		_I2C1_DataTransmit
  2753 ;;		_I2C1_EVENT_STOP
  2754 ;;		_I2C1_RestartEnable
  2755 ;; This function is called by:
  2756 ;;		_I2C1_EventHandler
  2757 ;;		_I2C1_ErrorEventHandler
  2758 ;; This function uses a non-reentrant model
  2759 ;;
  2760                           
  2761                           	psect	text35
  2762   0012C0                     __ptext35:
  2763                           	callstack 0
  2764   0012C0                     _I2C1_EVENT_TX:
  2765                           	callstack 20
  2766   0012C0                     
  2767                           ;mcc_generated_files/i2c_host/src/mssp.c: 305:     if (i2c1Status.writeLength)
  2768   0012C0  5006               	movf	(_i2c1Status+5)^0,w,c	;volatile
  2769   0012C2  1007               	iorwf	(_i2c1Status+6)^0,w,c	;volatile
  2770   0012C4  B4D8               	btfsc	status,2,c
  2771   0012C6  EF67  F009         	goto	i2u11_41
  2772   0012CA  EF69  F009         	goto	i2u11_40
  2773   0012CE                     i2u11_41:
  2774   0012CE  EF79  F009         	goto	i2l1387
  2775   0012D2                     i2u11_40:
  2776   0012D2                     
  2777                           ;mcc_generated_files/i2c_host/src/mssp.c: 306:     {;mcc_generated_files/i2c_host/src/ms
      +                          sp.c: 307:         i2c1Status.writeLength--;
  2778   0012D2  0606               	decf	(_i2c1Status+5)^0,f,c	;volatile
  2779   0012D4  A0D8               	btfss	status,0,c
  2780   0012D6  0607               	decf	(_i2c1Status+6)^0,f,c	;volatile
  2781   0012D8                     
  2782                           ;mcc_generated_files/i2c_host/src/mssp.c: 308:         I2C1_DataTransmit(*i2c1Status.wri
      +                          tePtr++);
  2783   0012D8  C004  FFD9         	movff	_i2c1Status+3,fsr2l	;volatile
  2784   0012DC  C005  FFDA         	movff	_i2c1Status+4,fsr2h	;volatile
  2785   0012E0  4A04               	infsnz	(_i2c1Status+3)^0,f,c	;volatile
  2786   0012E2  2A05               	incf	(_i2c1Status+4)^0,f,c	;volatile
  2787   0012E4  50DF               	movf	indf2,w,c
  2788   0012E6  ECFD  F00A         	call	_I2C1_DataTransmit
  2789   0012EA                     
  2790                           ;mcc_generated_files/i2c_host/src/mssp.c: 309:         retEventState = I2C_STATE_TX;
  2791   0012EA  0E03               	movlw	3
  2792   0012EC  6E36               	movwf	I2C1_EVENT_TX@retEventState^0,c
  2793                           
  2794                           ;mcc_generated_files/i2c_host/src/mssp.c: 310:     }
  2795   0012EE  EF8C  F009         	goto	i2l1397
  2796   0012F2                     i2l1387:
  2797                           
  2798                           ;mcc_generated_files/i2c_host/src/mssp.c: 312:     {;mcc_generated_files/i2c_host/src/ms
      +                          sp.c: 313:         if (i2c1Status.switchToRead)
  2799   0012F2  500C               	movf	(_i2c1Status+11)^0,w,c	;volatile
  2800   0012F4  B4D8               	btfsc	status,2,c
  2801   0012F6  EF7F  F009         	goto	i2u12_41
  2802   0012FA  EF81  F009         	goto	i2u12_40
  2803   0012FE                     i2u12_41:
  2804   0012FE  EF89  F009         	goto	i2l1395
  2805   001302                     i2u12_40:
  2806   001302                     
  2807                           ;mcc_generated_files/i2c_host/src/mssp.c: 314:         {;mcc_generated_files/i2c_host/sr
      +                          c/mssp.c: 315:             i2c1Status.switchToRead = 0;
  2808   001302  0E00               	movlw	0
  2809   001304  6E0C               	movwf	(_i2c1Status+11)^0,c	;volatile
  2810   001306                     
  2811                           ;mcc_generated_files/i2c_host/src/mssp.c: 316:             I2C1_RestartEnable();
  2812   001306  EC18  F00B         	call	_I2C1_RestartEnable	;wreg free
  2813   00130A                     
  2814                           ;mcc_generated_files/i2c_host/src/mssp.c: 317:             retEventState = I2C_STATE_SEN
      +                          D_RD_ADDR;
  2815   00130A  0E01               	movlw	1
  2816   00130C  6E36               	movwf	I2C1_EVENT_TX@retEventState^0,c
  2817                           
  2818                           ;mcc_generated_files/i2c_host/src/mssp.c: 318:         }
  2819   00130E  EF8C  F009         	goto	i2l1397
  2820   001312                     i2l1395:
  2821                           
  2822                           ;mcc_generated_files/i2c_host/src/mssp.c: 320:         {;mcc_generated_files/i2c_host/sr
      +                          c/mssp.c: 321:             retEventState = I2C1_EVENT_STOP();
  2823   001312  ECC4  F00A         	call	_I2C1_EVENT_STOP	;wreg free
  2824   001316  6E36               	movwf	I2C1_EVENT_TX@retEventState^0,c
  2825   001318                     i2l1397:
  2826                           
  2827                           ;mcc_generated_files/i2c_host/src/mssp.c: 325:     return retEventState;
  2828   001318  5036               	movf	I2C1_EVENT_TX@retEventState^0,w,c
  2829   00131A  0012               	return		;funcret
  2830   00131C                     __end_of_I2C1_EVENT_TX:
  2831                           	callstack 0
  2832                           
  2833 ;; *************** function _I2C1_RestartEnable *****************
  2834 ;; Defined at:
  2835 ;;		line 412 in file "mcc_generated_files/i2c_host/src/mssp.c"
  2836 ;; Parameters:    Size  Location     Type
  2837 ;;		None
  2838 ;; Auto vars:     Size  Location     Type
  2839 ;;		None
  2840 ;; Return value:  Size  Location     Type
  2841 ;;                  1    wreg      void 
  2842 ;; Registers used:
  2843 ;;		None
  2844 ;; Tracked objects:
  2845 ;;		On entry : 0/0
  2846 ;;		On exit  : 0/0
  2847 ;;		Unchanged: 0/0
  2848 ;; Data sizes:     COMRAM   BANK0   BANK1   BANK2   BANK3   BANK4   BANK5   BANK6   BANK7   BANK8   BANK9  BANK10  BANK1
      +1  BANK12  BANK13  BANK14  BANK15
  2849 ;;      Params:         0       0       0       0       0       0       0       0       0       0       0       0       
      +0       0       0       0       0
  2850 ;;      Locals:         0       0       0       0       0       0       0       0       0       0       0       0       
      +0       0       0       0       0
  2851 ;;      Temps:          0       0       0       0       0       0       0       0       0       0       0       0       
      +0       0       0       0       0
  2852 ;;      Totals:         0       0       0       0       0       0       0       0       0       0       0       0       
      +0       0       0       0       0
  2853 ;;Total ram usage:        0 bytes
  2854 ;; Hardware stack levels used: 1
  2855 ;; This function calls:
  2856 ;;		Nothing
  2857 ;; This function is called by:
  2858 ;;		_I2C1_EVENT_TX
  2859 ;; This function uses a non-reentrant model
  2860 ;;
  2861                           
  2862                           	psect	text36
  2863   001630                     __ptext36:
  2864                           	callstack 0
  2865   001630                     _I2C1_RestartEnable:
  2866                           	callstack 22
  2867   001630                     
  2868                           ;mcc_generated_files/i2c_host/src/mssp.c: 414:     SSPCON2bits.RSEN = 1;
  2869   001630  82C5               	bsf	197,1,c	;volatile
  2870   001632  0012               	return		;funcret
  2871   001634                     __end_of_I2C1_RestartEnable:
  2872                           	callstack 0
  2873                           
  2874 ;; *************** function _I2C1_DataTransmit *****************
  2875 ;; Defined at:
  2876 ;;		line 396 in file "mcc_generated_files/i2c_host/src/mssp.c"
  2877 ;; Parameters:    Size  Location     Type
  2878 ;;  data            1    wreg     unsigned char 
  2879 ;; Auto vars:     Size  Location     Type
  2880 ;;  data            1    0[COMRAM] unsigned char 
  2881 ;; Return value:  Size  Location     Type
  2882 ;;                  1    wreg      void 
  2883 ;; Registers used:
  2884 ;;		wreg
  2885 ;; Tracked objects:
  2886 ;;		On entry : 0/0
  2887 ;;		On exit  : 0/0
  2888 ;;		Unchanged: 0/0
  2889 ;; Data sizes:     COMRAM   BANK0   BANK1   BANK2   BANK3   BANK4   BANK5   BANK6   BANK7   BANK8   BANK9  BANK10  BANK1
      +1  BANK12  BANK13  BANK14  BANK15
  2890 ;;      Params:         0       0       0       0       0       0       0       0       0       0       0       0       
      +0       0       0       0       0
  2891 ;;      Locals:         1       0       0       0       0       0       0       0       0       0       0       0       
      +0       0       0       0       0
  2892 ;;      Temps:          0       0       0       0       0       0       0       0       0       0       0       0       
      +0       0       0       0       0
  2893 ;;      Totals:         1       0       0       0       0       0       0       0       0       0       0       0       
      +0       0       0       0       0
  2894 ;;Total ram usage:        1 bytes
  2895 ;; Hardware stack levels used: 1
  2896 ;; This function calls:
  2897 ;;		Nothing
  2898 ;; This function is called by:
  2899 ;;		_I2C1_EVENT_SEND_RD_ADDR
  2900 ;;		_I2C1_EVENT_SEND_WR_ADDR
  2901 ;;		_I2C1_EVENT_TX
  2902 ;; This function uses a non-reentrant model
  2903 ;;
  2904                           
  2905                           	psect	text37
  2906   0015FA                     __ptext37:
  2907                           	callstack 0
  2908   0015FA                     _I2C1_DataTransmit:
  2909                           	callstack 22
  2910                           
  2911                           ;incstack = 0
  2912                           ;I2C1_DataTransmit@data stored from wreg
  2913   0015FA  6E35               	movwf	I2C1_DataTransmit@data^0,c
  2914   0015FC                     
  2915                           ;mcc_generated_files/i2c_host/src/mssp.c: 396: static void I2C1_DataTransmit(uint8_t dat
      +                          a);mcc_generated_files/i2c_host/src/mssp.c: 397: {;mcc_generated_files/i2c_host/src/mssp
      +                          .c: 398:     SSPBUF = data;
  2916   0015FC  C035  FFC9         	movff	I2C1_DataTransmit@data,4041	;volatile
  2917   001600  0012               	return		;funcret
  2918   001602                     __end_of_I2C1_DataTransmit:
  2919                           	callstack 0
  2920                           
  2921 ;; *************** function _I2C1_RestartDisable *****************
  2922 ;; Defined at:
  2923 ;;		line 417 in file "mcc_generated_files/i2c_host/src/mssp.c"
  2924 ;; Parameters:    Size  Location     Type
  2925 ;;		None
  2926 ;; Auto vars:     Size  Location     Type
  2927 ;;		None
  2928 ;; Return value:  Size  Location     Type
  2929 ;;                  1    wreg      void 
  2930 ;; Registers used:
  2931 ;;		None
  2932 ;; Tracked objects:
  2933 ;;		On entry : 0/0
  2934 ;;		On exit  : 0/0
  2935 ;;		Unchanged: 0/0
  2936 ;; Data sizes:     COMRAM   BANK0   BANK1   BANK2   BANK3   BANK4   BANK5   BANK6   BANK7   BANK8   BANK9  BANK10  BANK1
      +1  BANK12  BANK13  BANK14  BANK15
  2937 ;;      Params:         0       0       0       0       0       0       0       0       0       0       0       0       
      +0       0       0       0       0
  2938 ;;      Locals:         0       0       0       0       0       0       0       0       0       0       0       0       
      +0       0       0       0       0
  2939 ;;      Temps:          0       0       0       0       0       0       0       0       0       0       0       0       
      +0       0       0       0       0
  2940 ;;      Totals:         0       0       0       0       0       0       0       0       0       0       0       0       
      +0       0       0       0       0
  2941 ;;Total ram usage:        0 bytes
  2942 ;; Hardware stack levels used: 1
  2943 ;; This function calls:
  2944 ;;		Nothing
  2945 ;; This function is called by:
  2946 ;;		_I2C1_EVENT_RX
  2947 ;; This function uses a non-reentrant model
  2948 ;;
  2949                           
  2950                           	psect	text38
  2951   001634                     __ptext38:
  2952                           	callstack 0
  2953   001634                     _I2C1_RestartDisable:
  2954                           	callstack 22
  2955   001634                     
  2956                           ;mcc_generated_files/i2c_host/src/mssp.c: 419:     SSPCON2bits.RSEN = 0;
  2957   001634  92C5               	bcf	197,1,c	;volatile
  2958   001636  0012               	return		;funcret
  2959   001638                     __end_of_I2C1_RestartDisable:
  2960                           	callstack 0
  2961                           
  2962 ;; *************** function _I2C1_ReceiveEnable *****************
  2963 ;; Defined at:
  2964 ;;		line 407 in file "mcc_generated_files/i2c_host/src/mssp.c"
  2965 ;; Parameters:    Size  Location     Type
  2966 ;;		None
  2967 ;; Auto vars:     Size  Location     Type
  2968 ;;		None
  2969 ;; Return value:  Size  Location     Type
  2970 ;;                  1    wreg      void 
  2971 ;; Registers used:
  2972 ;;		None
  2973 ;; Tracked objects:
  2974 ;;		On entry : 0/0
  2975 ;;		On exit  : 0/0
  2976 ;;		Unchanged: 0/0
  2977 ;; Data sizes:     COMRAM   BANK0   BANK1   BANK2   BANK3   BANK4   BANK5   BANK6   BANK7   BANK8   BANK9  BANK10  BANK1
      +1  BANK12  BANK13  BANK14  BANK15
  2978 ;;      Params:         0       0       0       0       0       0       0       0       0       0       0       0       
      +0       0       0       0       0
  2979 ;;      Locals:         0       0       0       0       0       0       0       0       0       0       0       0       
      +0       0       0       0       0
  2980 ;;      Temps:          0       0       0       0       0       0       0       0       0       0       0       0       
      +0       0       0       0       0
  2981 ;;      Totals:         0       0       0       0       0       0       0       0       0       0       0       0       
      +0       0       0       0       0
  2982 ;;Total ram usage:        0 bytes
  2983 ;; Hardware stack levels used: 1
  2984 ;; This function calls:
  2985 ;;		Nothing
  2986 ;; This function is called by:
  2987 ;;		_I2C1_EVENT_RX
  2988 ;; This function uses a non-reentrant model
  2989 ;;
  2990                           
  2991                           	psect	text39
  2992   001638                     __ptext39:
  2993                           	callstack 0
  2994   001638                     _I2C1_ReceiveEnable:
  2995                           	callstack 22
  2996   001638                     
  2997                           ;mcc_generated_files/i2c_host/src/mssp.c: 409:     SSPCON2bits.RCEN = 1;
  2998   001638  86C5               	bsf	197,3,c	;volatile
  2999   00163A  0012               	return		;funcret
  3000   00163C                     __end_of_I2C1_ReceiveEnable:
  3001                           	callstack 0
  3002                           
  3003 ;; *************** function _I2C1_NackSend *****************
  3004 ;; Defined at:
  3005 ;;		line 438 in file "mcc_generated_files/i2c_host/src/mssp.c"
  3006 ;; Parameters:    Size  Location     Type
  3007 ;;		None
  3008 ;; Auto vars:     Size  Location     Type
  3009 ;;		None
  3010 ;; Return value:  Size  Location     Type
  3011 ;;                  1    wreg      void 
  3012 ;; Registers used:
  3013 ;;		None
  3014 ;; Tracked objects:
  3015 ;;		On entry : 0/0
  3016 ;;		On exit  : 0/0
  3017 ;;		Unchanged: 0/0
  3018 ;; Data sizes:     COMRAM   BANK0   BANK1   BANK2   BANK3   BANK4   BANK5   BANK6   BANK7   BANK8   BANK9  BANK10  BANK1
      +1  BANK12  BANK13  BANK14  BANK15
  3019 ;;      Params:         0       0       0       0       0       0       0       0       0       0       0       0       
      +0       0       0       0       0
  3020 ;;      Locals:         0       0       0       0       0       0       0       0       0       0       0       0       
      +0       0       0       0       0
  3021 ;;      Temps:          0       0       0       0       0       0       0       0       0       0       0       0       
      +0       0       0       0       0
  3022 ;;      Totals:         0       0       0       0       0       0       0       0       0       0       0       0       
      +0       0       0       0       0
  3023 ;;Total ram usage:        0 bytes
  3024 ;; Hardware stack levels used: 1
  3025 ;; This function calls:
  3026 ;;		Nothing
  3027 ;; This function is called by:
  3028 ;;		_I2C1_EVENT_RX
  3029 ;; This function uses a non-reentrant model
  3030 ;;
  3031                           
  3032                           	psect	text40
  3033   001614                     __ptext40:
  3034                           	callstack 0
  3035   001614                     _I2C1_NackSend:
  3036                           	callstack 22
  3037   001614                     
  3038                           ;mcc_generated_files/i2c_host/src/mssp.c: 440:     SSPCON2bits.ACKDT = 1;
  3039   001614  8AC5               	bsf	197,5,c	;volatile
  3040                           
  3041                           ;mcc_generated_files/i2c_host/src/mssp.c: 441:     SSPCON2bits.ACKEN = 1;
  3042   001616  88C5               	bsf	197,4,c	;volatile
  3043   001618  0012               	return		;funcret
  3044   00161A                     __end_of_I2C1_NackSend:
  3045                           	callstack 0
  3046                           
  3047 ;; *************** function _I2C1_IsRxBufFull *****************
  3048 ;; Defined at:
  3049 ;;		line 459 in file "mcc_generated_files/i2c_host/src/mssp.c"
  3050 ;; Parameters:    Size  Location     Type
  3051 ;;		None
  3052 ;; Auto vars:     Size  Location     Type
  3053 ;;		None
  3054 ;; Return value:  Size  Location     Type
  3055 ;;                  1    wreg      _Bool 
  3056 ;; Registers used:
  3057 ;;		wreg
  3058 ;; Tracked objects:
  3059 ;;		On entry : 0/0
  3060 ;;		On exit  : 0/0
  3061 ;;		Unchanged: 0/0
  3062 ;; Data sizes:     COMRAM   BANK0   BANK1   BANK2   BANK3   BANK4   BANK5   BANK6   BANK7   BANK8   BANK9  BANK10  BANK1
      +1  BANK12  BANK13  BANK14  BANK15
  3063 ;;      Params:         0       0       0       0       0       0       0       0       0       0       0       0       
      +0       0       0       0       0
  3064 ;;      Locals:         0       0       0       0       0       0       0       0       0       0       0       0       
      +0       0       0       0       0
  3065 ;;      Temps:          0       0       0       0       0       0       0       0       0       0       0       0       
      +0       0       0       0       0
  3066 ;;      Totals:         0       0       0       0       0       0       0       0       0       0       0       0       
      +0       0       0       0       0
  3067 ;;Total ram usage:        0 bytes
  3068 ;; Hardware stack levels used: 1
  3069 ;; This function calls:
  3070 ;;		Nothing
  3071 ;; This function is called by:
  3072 ;;		_I2C1_EVENT_RX
  3073 ;; This function uses a non-reentrant model
  3074 ;;
  3075                           
  3076                           	psect	text41
  3077   001568                     __ptext41:
  3078                           	callstack 0
  3079   001568                     _I2C1_IsRxBufFull:
  3080                           	callstack 22
  3081   001568                     
  3082                           ;mcc_generated_files/i2c_host/src/mssp.c: 461:     return SSPSTATbits.BF;
  3083   001568  B0C7               	btfsc	199,0,c	;volatile
  3084   00156A  EFB9  F00A         	goto	i2u1_41
  3085   00156E  EFBC  F00A         	goto	i2u1_40
  3086   001572                     i2u1_41:
  3087   001572  0E01               	movlw	1
  3088   001574  EFBD  F00A         	goto	i2u1_46
  3089   001578                     i2u1_40:
  3090   001578  0E00               	movlw	0
  3091   00157A                     i2u1_46:
  3092   00157A  0012               	return		;funcret
  3093   00157C                     __end_of_I2C1_IsRxBufFull:
  3094                           	callstack 0
  3095                           
  3096 ;; *************** function _I2C1_DataReceive *****************
  3097 ;; Defined at:
  3098 ;;		line 391 in file "mcc_generated_files/i2c_host/src/mssp.c"
  3099 ;; Parameters:    Size  Location     Type
  3100 ;;		None
  3101 ;; Auto vars:     Size  Location     Type
  3102 ;;		None
  3103 ;; Return value:  Size  Location     Type
  3104 ;;                  1    wreg      unsigned char 
  3105 ;; Registers used:
  3106 ;;		wreg, status,2
  3107 ;; Tracked objects:
  3108 ;;		On entry : 0/0
  3109 ;;		On exit  : 0/0
  3110 ;;		Unchanged: 0/0
  3111 ;; Data sizes:     COMRAM   BANK0   BANK1   BANK2   BANK3   BANK4   BANK5   BANK6   BANK7   BANK8   BANK9  BANK10  BANK1
      +1  BANK12  BANK13  BANK14  BANK15
  3112 ;;      Params:         0       0       0       0       0       0       0       0       0       0       0       0       
      +0       0       0       0       0
  3113 ;;      Locals:         0       0       0       0       0       0       0       0       0       0       0       0       
      +0       0       0       0       0
  3114 ;;      Temps:          0       0       0       0       0       0       0       0       0       0       0       0       
      +0       0       0       0       0
  3115 ;;      Totals:         0       0       0       0       0       0       0       0       0       0       0       0       
      +0       0       0       0       0
  3116 ;;Total ram usage:        0 bytes
  3117 ;; Hardware stack levels used: 1
  3118 ;; This function calls:
  3119 ;;		Nothing
  3120 ;; This function is called by:
  3121 ;;		_I2C1_EVENT_RX
  3122 ;; This function uses a non-reentrant model
  3123 ;;
  3124                           
  3125                           	psect	text42
  3126   00163C                     __ptext42:
  3127                           	callstack 0
  3128   00163C                     _I2C1_DataReceive:
  3129                           	callstack 22
  3130   00163C                     
  3131                           ;mcc_generated_files/i2c_host/src/mssp.c: 393:     return SSPBUF;
  3132   00163C  50C9               	movf	201,w,c	;volatile
  3133   00163E  0012               	return		;funcret
  3134   001640                     __end_of_I2C1_DataReceive:
  3135                           	callstack 0
  3136                           
  3137 ;; *************** function _I2C1_AckSend *****************
  3138 ;; Defined at:
  3139 ;;		line 432 in file "mcc_generated_files/i2c_host/src/mssp.c"
  3140 ;; Parameters:    Size  Location     Type
  3141 ;;		None
  3142 ;; Auto vars:     Size  Location     Type
  3143 ;;		None
  3144 ;; Return value:  Size  Location     Type
  3145 ;;                  1    wreg      void 
  3146 ;; Registers used:
  3147 ;;		None
  3148 ;; Tracked objects:
  3149 ;;		On entry : 0/0
  3150 ;;		On exit  : 0/0
  3151 ;;		Unchanged: 0/0
  3152 ;; Data sizes:     COMRAM   BANK0   BANK1   BANK2   BANK3   BANK4   BANK5   BANK6   BANK7   BANK8   BANK9  BANK10  BANK1
      +1  BANK12  BANK13  BANK14  BANK15
  3153 ;;      Params:         0       0       0       0       0       0       0       0       0       0       0       0       
      +0       0       0       0       0
  3154 ;;      Locals:         0       0       0       0       0       0       0       0       0       0       0       0       
      +0       0       0       0       0
  3155 ;;      Temps:          0       0       0       0       0       0       0       0       0       0       0       0       
      +0       0       0       0       0
  3156 ;;      Totals:         0       0       0       0       0       0       0       0       0       0       0       0       
      +0       0       0       0       0
  3157 ;;Total ram usage:        0 bytes
  3158 ;; Hardware stack levels used: 1
  3159 ;; This function calls:
  3160 ;;		Nothing
  3161 ;; This function is called by:
  3162 ;;		_I2C1_EVENT_RX
  3163 ;; This function uses a non-reentrant model
  3164 ;;
  3165                           
  3166                           	psect	text43
  3167   00161A                     __ptext43:
  3168                           	callstack 0
  3169   00161A                     _I2C1_AckSend:
  3170                           	callstack 22
  3171   00161A                     
  3172                           ;mcc_generated_files/i2c_host/src/mssp.c: 434:     SSPCON2bits.ACKDT = 0;
  3173   00161A  9AC5               	bcf	197,5,c	;volatile
  3174                           
  3175                           ;mcc_generated_files/i2c_host/src/mssp.c: 435:     SSPCON2bits.ACKEN = 1;
  3176   00161C  88C5               	bsf	197,4,c	;volatile
  3177   00161E  0012               	return		;funcret
  3178   001620                     __end_of_I2C1_AckSend:
  3179                           	callstack 0
  3180                           
  3181 ;; *************** function _I2C1_StopSend *****************
  3182 ;; Defined at:
  3183 ;;		line 427 in file "mcc_generated_files/i2c_host/src/mssp.c"
  3184 ;; Parameters:    Size  Location     Type
  3185 ;;		None
  3186 ;; Auto vars:     Size  Location     Type
  3187 ;;		None
  3188 ;; Return value:  Size  Location     Type
  3189 ;;                  1    wreg      void 
  3190 ;; Registers used:
  3191 ;;		None
  3192 ;; Tracked objects:
  3193 ;;		On entry : 0/0
  3194 ;;		On exit  : 0/0
  3195 ;;		Unchanged: 0/0
  3196 ;; Data sizes:     COMRAM   BANK0   BANK1   BANK2   BANK3   BANK4   BANK5   BANK6   BANK7   BANK8   BANK9  BANK10  BANK1
      +1  BANK12  BANK13  BANK14  BANK15
  3197 ;;      Params:         0       0       0       0       0       0       0       0       0       0       0       0       
      +0       0       0       0       0
  3198 ;;      Locals:         0       0       0       0       0       0       0       0       0       0       0       0       
      +0       0       0       0       0
  3199 ;;      Temps:          0       0       0       0       0       0       0       0       0       0       0       0       
      +0       0       0       0       0
  3200 ;;      Totals:         0       0       0       0       0       0       0       0       0       0       0       0       
      +0       0       0       0       0
  3201 ;;Total ram usage:        0 bytes
  3202 ;; Hardware stack levels used: 1
  3203 ;; This function calls:
  3204 ;;		Nothing
  3205 ;; This function is called by:
  3206 ;;		_I2C1_EVENT_STOP
  3207 ;; This function uses a non-reentrant model
  3208 ;;
  3209                           
  3210                           	psect	text44
  3211   001640                     __ptext44:
  3212                           	callstack 0
  3213   001640                     _I2C1_StopSend:
  3214                           	callstack 21
  3215   001640                     
  3216                           ;mcc_generated_files/i2c_host/src/mssp.c: 429:     SSPCON2bits.PEN = 1;
  3217   001640  84C5               	bsf	197,2,c	;volatile
  3218   001642  0012               	return		;funcret
  3219   001644                     __end_of_I2C1_StopSend:
  3220                           	callstack 0
  3221                           
  3222 ;; *************** function _I2C1_Close *****************
  3223 ;; Defined at:
  3224 ;;		line 241 in file "mcc_generated_files/i2c_host/src/mssp.c"
  3225 ;; Parameters:    Size  Location     Type
  3226 ;;		None
  3227 ;; Auto vars:     Size  Location     Type
  3228 ;;		None
  3229 ;; Return value:  Size  Location     Type
  3230 ;;                  1    wreg      void 
  3231 ;; Registers used:
  3232 ;;		wreg, status,2, status,0, cstack
  3233 ;; Tracked objects:
  3234 ;;		On entry : 0/0
  3235 ;;		On exit  : 0/0
  3236 ;;		Unchanged: 0/0
  3237 ;; Data sizes:     COMRAM   BANK0   BANK1   BANK2   BANK3   BANK4   BANK5   BANK6   BANK7   BANK8   BANK9  BANK10  BANK1
      +1  BANK12  BANK13  BANK14  BANK15
  3238 ;;      Params:         0       0       0       0       0       0       0       0       0       0       0       0       
      +0       0       0       0       0
  3239 ;;      Locals:         0       0       0       0       0       0       0       0       0       0       0       0       
      +0       0       0       0       0
  3240 ;;      Temps:          0       0       0       0       0       0       0       0       0       0       0       0       
      +0       0       0       0       0
  3241 ;;      Totals:         0       0       0       0       0       0       0       0       0       0       0       0       
      +0       0       0       0       0
  3242 ;;Total ram usage:        0 bytes
  3243 ;; Hardware stack levels used: 1
  3244 ;; Hardware stack levels required when called: 1
  3245 ;; This function calls:
  3246 ;;		_I2C1_ErrorInterruptClear
  3247 ;;		_I2C1_InterruptClear
  3248 ;;		_I2C1_StatusFlagsClear
  3249 ;; This function is called by:
  3250 ;;		_I2C1_EVENT_STOP
  3251 ;; This function uses a non-reentrant model
  3252 ;;
  3253                           
  3254                           	psect	text45
  3255   001410                     __ptext45:
  3256                           	callstack 0
  3257   001410                     _I2C1_Close:
  3258                           	callstack 20
  3259   001410                     
  3260                           ;mcc_generated_files/i2c_host/src/mssp.c: 243:     i2c1Status.busy = 0;
  3261   001410  0E00               	movlw	0
  3262   001412  6E01               	movwf	_i2c1Status^0,c	;volatile
  3263                           
  3264                           ;mcc_generated_files/i2c_host/src/mssp.c: 244:     i2c1Status.address = 0xFF;
  3265   001414  0E00               	movlw	0
  3266   001416  6E03               	movwf	(_i2c1Status+2)^0,c	;volatile
  3267   001418  6802               	setf	(_i2c1Status+1)^0,c	;volatile
  3268   00141A                     
  3269                           ;mcc_generated_files/i2c_host/src/mssp.c: 245:     i2c1Status.writePtr = ((void*)0);
  3270   00141A  0E00               	movlw	0
  3271   00141C  6E04               	movwf	(_i2c1Status+3)^0,c	;volatile
  3272   00141E  0E00               	movlw	0
  3273   001420  6E05               	movwf	(_i2c1Status+4)^0,c	;volatile
  3274   001422                     
  3275                           ;mcc_generated_files/i2c_host/src/mssp.c: 246:     i2c1Status.readPtr = ((void*)0);
  3276   001422  0E00               	movlw	0
  3277   001424  6E08               	movwf	(_i2c1Status+7)^0,c	;volatile
  3278   001426  0E00               	movlw	0
  3279   001428  6E09               	movwf	(_i2c1Status+8)^0,c	;volatile
  3280                           
  3281                           ;mcc_generated_files/i2c_host/src/mssp.c: 247:     i2c1Status.state = I2C_STATE_IDLE;
  3282   00142A  0E00               	movlw	0
  3283   00142C  6E0E               	movwf	(_i2c1Status+13)^0,c	;volatile
  3284   00142E                     
  3285                           ;mcc_generated_files/i2c_host/src/mssp.c: 248:     I2C1_InterruptClear();
  3286   00142E  EC22  F00B         	call	_I2C1_InterruptClear	;wreg free
  3287   001432                     
  3288                           ;mcc_generated_files/i2c_host/src/mssp.c: 249:     I2C1_ErrorInterruptClear();
  3289   001432  EC24  F00B         	call	_I2C1_ErrorInterruptClear	;wreg free
  3290   001436                     
  3291                           ;mcc_generated_files/i2c_host/src/mssp.c: 250:     I2C1_StatusFlagsClear();
  3292   001436  EC10  F00B         	call	_I2C1_StatusFlagsClear	;wreg free
  3293   00143A  0012               	return		;funcret
  3294   00143C                     __end_of_I2C1_Close:
  3295                           	callstack 0
  3296                           
  3297 ;; *************** function _I2C1_StatusFlagsClear *****************
  3298 ;; Defined at:
  3299 ;;		line 486 in file "mcc_generated_files/i2c_host/src/mssp.c"
  3300 ;; Parameters:    Size  Location     Type
  3301 ;;		None
  3302 ;; Auto vars:     Size  Location     Type
  3303 ;;		None
  3304 ;; Return value:  Size  Location     Type
  3305 ;;                  1    wreg      void 
  3306 ;; Registers used:
  3307 ;;		None
  3308 ;; Tracked objects:
  3309 ;;		On entry : 0/0
  3310 ;;		On exit  : 0/0
  3311 ;;		Unchanged: 0/0
  3312 ;; Data sizes:     COMRAM   BANK0   BANK1   BANK2   BANK3   BANK4   BANK5   BANK6   BANK7   BANK8   BANK9  BANK10  BANK1
      +1  BANK12  BANK13  BANK14  BANK15
  3313 ;;      Params:         0       0       0       0       0       0       0       0       0       0       0       0       
      +0       0       0       0       0
  3314 ;;      Locals:         0       0       0       0       0       0       0       0       0       0       0       0       
      +0       0       0       0       0
  3315 ;;      Temps:          0       0       0       0       0       0       0       0       0       0       0       0       
      +0       0       0       0       0
  3316 ;;      Totals:         0       0       0       0       0       0       0       0       0       0       0       0       
      +0       0       0       0       0
  3317 ;;Total ram usage:        0 bytes
  3318 ;; Hardware stack levels used: 1
  3319 ;; This function calls:
  3320 ;;		Nothing
  3321 ;; This function is called by:
  3322 ;;		_I2C1_Close
  3323 ;; This function uses a non-reentrant model
  3324 ;;
  3325                           
  3326                           	psect	text46
  3327   001620                     __ptext46:
  3328                           	callstack 0
  3329   001620                     _I2C1_StatusFlagsClear:
  3330                           	callstack 20
  3331   001620                     
  3332                           ;mcc_generated_files/i2c_host/src/mssp.c: 488:     SSPCON1bits.WCOL = 0;
  3333   001620  9EC6               	bcf	198,7,c	;volatile
  3334                           
  3335                           ;mcc_generated_files/i2c_host/src/mssp.c: 489:     SSPCON1bits.SSPOV = 0;
  3336   001622  9CC6               	bcf	198,6,c	;volatile
  3337   001624  0012               	return		;funcret
  3338   001626                     __end_of_I2C1_StatusFlagsClear:
  3339                           	callstack 0
  3340                           
  3341 ;; *************** function _I2C1_InterruptClear *****************
  3342 ;; Defined at:
  3343 ;;		line 476 in file "mcc_generated_files/i2c_host/src/mssp.c"
  3344 ;; Parameters:    Size  Location     Type
  3345 ;;		None
  3346 ;; Auto vars:     Size  Location     Type
  3347 ;;		None
  3348 ;; Return value:  Size  Location     Type
  3349 ;;                  1    wreg      void 
  3350 ;; Registers used:
  3351 ;;		None
  3352 ;; Tracked objects:
  3353 ;;		On entry : 0/0
  3354 ;;		On exit  : 0/0
  3355 ;;		Unchanged: 0/0
  3356 ;; Data sizes:     COMRAM   BANK0   BANK1   BANK2   BANK3   BANK4   BANK5   BANK6   BANK7   BANK8   BANK9  BANK10  BANK1
      +1  BANK12  BANK13  BANK14  BANK15
  3357 ;;      Params:         0       0       0       0       0       0       0       0       0       0       0       0       
      +0       0       0       0       0
  3358 ;;      Locals:         0       0       0       0       0       0       0       0       0       0       0       0       
      +0       0       0       0       0
  3359 ;;      Temps:          0       0       0       0       0       0       0       0       0       0       0       0       
      +0       0       0       0       0
  3360 ;;      Totals:         0       0       0       0       0       0       0       0       0       0       0       0       
      +0       0       0       0       0
  3361 ;;Total ram usage:        0 bytes
  3362 ;; Hardware stack levels used: 1
  3363 ;; This function calls:
  3364 ;;		Nothing
  3365 ;; This function is called by:
  3366 ;;		_I2C1_Close
  3367 ;;		_I2C1_EventHandler
  3368 ;; This function uses a non-reentrant model
  3369 ;;
  3370                           
  3371                           	psect	text47
  3372   001644                     __ptext47:
  3373                           	callstack 0
  3374   001644                     _I2C1_InterruptClear:
  3375                           	callstack 23
  3376   001644                     
  3377                           ;mcc_generated_files/i2c_host/src/mssp.c: 478:     PIR1bits.SSPIF = 0;
  3378   001644  969E               	bcf	158,3,c	;volatile
  3379   001646  0012               	return		;funcret
  3380   001648                     __end_of_I2C1_InterruptClear:
  3381                           	callstack 0
  3382                           
  3383 ;; *************** function _I2C1_ErrorInterruptClear *****************
  3384 ;; Defined at:
  3385 ;;		line 481 in file "mcc_generated_files/i2c_host/src/mssp.c"
  3386 ;; Parameters:    Size  Location     Type
  3387 ;;		None
  3388 ;; Auto vars:     Size  Location     Type
  3389 ;;		None
  3390 ;; Return value:  Size  Location     Type
  3391 ;;                  1    wreg      void 
  3392 ;; Registers used:
  3393 ;;		None
  3394 ;; Tracked objects:
  3395 ;;		On entry : 0/0
  3396 ;;		On exit  : 0/0
  3397 ;;		Unchanged: 0/0
  3398 ;; Data sizes:     COMRAM   BANK0   BANK1   BANK2   BANK3   BANK4   BANK5   BANK6   BANK7   BANK8   BANK9  BANK10  BANK1
      +1  BANK12  BANK13  BANK14  BANK15
  3399 ;;      Params:         0       0       0       0       0       0       0       0       0       0       0       0       
      +0       0       0       0       0
  3400 ;;      Locals:         0       0       0       0       0       0       0       0       0       0       0       0       
      +0       0       0       0       0
  3401 ;;      Temps:          0       0       0       0       0       0       0       0       0       0       0       0       
      +0       0       0       0       0
  3402 ;;      Totals:         0       0       0       0       0       0       0       0       0       0       0       0       
      +0       0       0       0       0
  3403 ;;Total ram usage:        0 bytes
  3404 ;; Hardware stack levels used: 1
  3405 ;; This function calls:
  3406 ;;		Nothing
  3407 ;; This function is called by:
  3408 ;;		_I2C1_Close
  3409 ;;		_I2C1_ErrorEventHandler
  3410 ;; This function uses a non-reentrant model
  3411 ;;
  3412                           
  3413                           	psect	text48
  3414   001648                     __ptext48:
  3415                           	callstack 0
  3416   001648                     _I2C1_ErrorInterruptClear:
  3417                           	callstack 20
  3418   001648                     
  3419                           ;mcc_generated_files/i2c_host/src/mssp.c: 483:     PIR2bits.BCLIF = 0;
  3420   001648  96A1               	bcf	161,3,c	;volatile
  3421   00164A  0012               	return		;funcret
  3422   00164C                     __end_of_I2C1_ErrorInterruptClear:
  3423                           	callstack 0
  3424                           
  3425 ;; *************** function _I2C1_BusReset *****************
  3426 ;; Defined at:
  3427 ;;		line 401 in file "mcc_generated_files/i2c_host/src/mssp.c"
  3428 ;; Parameters:    Size  Location     Type
  3429 ;;		None
  3430 ;; Auto vars:     Size  Location     Type
  3431 ;;		None
  3432 ;; Return value:  Size  Location     Type
  3433 ;;                  1    wreg      void 
  3434 ;; Registers used:
  3435 ;;		None
  3436 ;; Tracked objects:
  3437 ;;		On entry : 0/0
  3438 ;;		On exit  : 0/0
  3439 ;;		Unchanged: 0/0
  3440 ;; Data sizes:     COMRAM   BANK0   BANK1   BANK2   BANK3   BANK4   BANK5   BANK6   BANK7   BANK8   BANK9  BANK10  BANK1
      +1  BANK12  BANK13  BANK14  BANK15
  3441 ;;      Params:         0       0       0       0       0       0       0       0       0       0       0       0       
      +0       0       0       0       0
  3442 ;;      Locals:         0       0       0       0       0       0       0       0       0       0       0       0       
      +0       0       0       0       0
  3443 ;;      Temps:          0       0       0       0       0       0       0       0       0       0       0       0       
      +0       0       0       0       0
  3444 ;;      Totals:         0       0       0       0       0       0       0       0       0       0       0       0       
      +0       0       0       0       0
  3445 ;;Total ram usage:        0 bytes
  3446 ;; Hardware stack levels used: 1
  3447 ;; This function calls:
  3448 ;;		Nothing
  3449 ;; This function is called by:
  3450 ;;		_I2C1_EVENT_RESET
  3451 ;; This function uses a non-reentrant model
  3452 ;;
  3453                           
  3454                           	psect	text49
  3455   001626                     __ptext49:
  3456                           	callstack 0
  3457   001626                     _I2C1_BusReset:
  3458                           	callstack 22
  3459   001626                     
  3460                           ;mcc_generated_files/i2c_host/src/mssp.c: 403:     SSPCON1bits.SSPEN = 0;
  3461   001626  9AC6               	bcf	198,5,c	;volatile
  3462                           
  3463                           ;mcc_generated_files/i2c_host/src/mssp.c: 404:     SSPCON1bits.SSPEN = 1;
  3464   001628  8AC6               	bsf	198,5,c	;volatile
  3465   00162A  0012               	return		;funcret
  3466   00162C                     __end_of_I2C1_BusReset:
  3467                           	callstack 0
  3468                           
  3469 ;; *************** function _I2C1_DefaultCallback *****************
  3470 ;; Defined at:
  3471 ;;		line 278 in file "mcc_generated_files/i2c_host/src/mssp.c"
  3472 ;; Parameters:    Size  Location     Type
  3473 ;;		None
  3474 ;; Auto vars:     Size  Location     Type
  3475 ;;		None
  3476 ;; Return value:  Size  Location     Type
  3477 ;;                  1    wreg      void 
  3478 ;; Registers used:
  3479 ;;		None
  3480 ;; Tracked objects:
  3481 ;;		On entry : 0/0
  3482 ;;		On exit  : 0/0
  3483 ;;		Unchanged: 0/0
  3484 ;; Data sizes:     COMRAM   BANK0   BANK1   BANK2   BANK3   BANK4   BANK5   BANK6   BANK7   BANK8   BANK9  BANK10  BANK1
      +1  BANK12  BANK13  BANK14  BANK15
  3485 ;;      Params:         0       0       0       0       0       0       0       0       0       0       0       0       
      +0       0       0       0       0
  3486 ;;      Locals:         0       0       0       0       0       0       0       0       0       0       0       0       
      +0       0       0       0       0
  3487 ;;      Temps:          0       0       0       0       0       0       0       0       0       0       0       0       
      +0       0       0       0       0
  3488 ;;      Totals:         0       0       0       0       0       0       0       0       0       0       0       0       
      +0       0       0       0       0
  3489 ;;Total ram usage:        0 bytes
  3490 ;; Hardware stack levels used: 1
  3491 ;; This function calls:
  3492 ;;		Nothing
  3493 ;; This function is called by:
  3494 ;;		_I2C1_Initialize
  3495 ;;		_I2C1_Deinitialize
  3496 ;;		_I2C1_ErrorEventHandler
  3497 ;; This function uses a non-reentrant model
  3498 ;;
  3499                           
  3500                           	psect	text50
  3501   00164C                     __ptext50:
  3502                           	callstack 0
  3503   00164C                     _I2C1_DefaultCallback:
  3504                           	callstack 23
  3505   00164C  0012               	return		;funcret
  3506   00164E                     __end_of_I2C1_DefaultCallback:
  3507                           	callstack 0
  3508                           
  3509                           	psect	text51
  3510   000000                     __ptext51:
  3511                           	callstack 0
  3512   000000                     
  3513                           	psect	rparam
  3514   000000                     
  3515                           	psect	temp
  3516   00004C                     btemp:
  3517                           	callstack 0
  3518   00004C                     	ds	1
  3519   000000                     int$flags	set	btemp
  3520   000000                     wtemp8	set	btemp+1
  3521   000000                     ttemp5	set	btemp+1
  3522   000000                     ttemp6	set	btemp+4
  3523   000000                     ttemp7	set	btemp+8
  3524                           
  3525                           	psect	config
  3526                           
  3527                           ; Padding undefined space
  3528   300000                     	org	3145728
  3529   300000  FF                 	db	255
  3530                           
  3531                           ;Config register CONFIG1H @ 0x300001
  3532                           ;	Oscillator Selection bits
  3533                           ;	FOSC = HS, HS oscillator
  3534                           ;	Fail-Safe Clock Monitor Enable bit
  3535                           ;	FCMEN = OFF, Fail-Safe Clock Monitor disabled
  3536                           ;	Internal/External Oscillator Switchover bit
  3537                           ;	IESO = OFF, Oscillator Switchover mode disabled
  3538   300001                     	org	3145729
  3539   300001  02                 	db	2
  3540                           
  3541                           ;Config register CONFIG2L @ 0x300002
  3542                           ;	Power-up Timer Enable bit
  3543                           ;	PWRTEN = OFF, PWRT disabled
  3544                           ;	Brown-out Reset Enable bits
  3545                           ;	BOREN = SBORDIS, Brown-out Reset enabled in hardware only (SBOREN is disabled)
  3546                           ;	Brown Out Reset Voltage bits
  3547                           ;	BORV = 18, VBOR set to 1.8 V nominal
  3548   300002                     	org	3145730
  3549   300002  1F                 	db	31
  3550                           
  3551                           ;Config register CONFIG2H @ 0x300003
  3552                           ;	Watchdog Timer Enable bit
  3553                           ;	WDTEN = OFF, WDT is controlled by SWDTEN bit of the WDTCON register
  3554                           ;	Watchdog Timer Postscale Select bits
  3555                           ;	WDTPS = 32768, 1:32768
  3556   300003                     	org	3145731
  3557   300003  1E                 	db	30
  3558                           
  3559                           ; Padding undefined space
  3560   300004                     	org	3145732
  3561   300004  FF                 	db	255
  3562                           
  3563                           ;Config register CONFIG3H @ 0x300005
  3564                           ;	CCP2 MUX bit
  3565                           ;	CCP2MX = PORTC, CCP2 input/output is multiplexed with RC1
  3566                           ;	PORTB A/D Enable bit
  3567                           ;	PBADEN = ON, PORTB<4:0> pins are configured as analog input channels on Reset
  3568                           ;	Low-Power Timer1 Oscillator Enable bit
  3569                           ;	LPT1OSC = OFF, Timer1 configured for higher power operation
  3570                           ;	HFINTOSC Fast Start-up
  3571                           ;	HFOFST = ON, HFINTOSC starts clocking the CPU without waiting for the oscillator to st
      +                          ablize.
  3572                           ;	MCLR Pin Enable bit
  3573                           ;	MCLRE = ON, MCLR pin enabled; RE3 input pin disabled
  3574   300005                     	org	3145733
  3575   300005  8B                 	db	139
  3576                           
  3577                           ;Config register CONFIG4L @ 0x300006
  3578                           ;	Stack Full/Underflow Reset Enable bit
  3579                           ;	STVREN = ON, Stack full/underflow will cause Reset
  3580                           ;	Single-Supply ICSP Enable bit
  3581                           ;	LVP = ON, Single-Supply ICSP enabled
  3582                           ;	Extended Instruction Set Enable bit
  3583                           ;	XINST = OFF, Instruction set extension and Indexed Addressing mode disabled (Legacy mo
      +                          de)
  3584                           ;	Background Debugger Enable bit
  3585                           ;	DEBUG = OFF, Background debugger disabled, RB6 and RB7 configured as general purpose I
      +                          /O pins
  3586   300006                     	org	3145734
  3587   300006  85                 	db	133
  3588                           
  3589                           ; Padding undefined space
  3590   300007                     	org	3145735
  3591   300007  FF                 	db	255
  3592                           
  3593                           ;Config register CONFIG5L @ 0x300008
  3594                           ;	Code Protection Block 0
  3595                           ;	CP0 = OFF, Block 0 (000800-003FFFh) not code-protected
  3596                           ;	Code Protection Block 1
  3597                           ;	CP1 = OFF, Block 1 (004000-007FFFh) not code-protected
  3598                           ;	Code Protection Block 2
  3599                           ;	CP2 = OFF, Block 2 (008000-00BFFFh) not code-protected
  3600                           ;	Code Protection Block 3
  3601                           ;	CP3 = OFF, Block 3 (00C000-00FFFFh) not code-protected
  3602   300008                     	org	3145736
  3603   300008  0F                 	db	15
  3604                           
  3605                           ;Config register CONFIG5H @ 0x300009
  3606                           ;	Boot Block Code Protection bit
  3607                           ;	CPB = OFF, Boot block (000000-0007FFh) not code-protected
  3608                           ;	Data EEPROM Code Protection bit
  3609                           ;	CPD = OFF, Data EEPROM not code-protected
  3610   300009                     	org	3145737
  3611   300009  C0                 	db	192
  3612                           
  3613                           ;Config register CONFIG6L @ 0x30000A
  3614                           ;	Write Protection Block 0
  3615                           ;	WRT0 = OFF, Block 0 (000800-003FFFh) not write-protected
  3616                           ;	Write Protection Block 1
  3617                           ;	WRT1 = OFF, Block 1 (004000-007FFFh) not write-protected
  3618                           ;	Write Protection Block 2
  3619                           ;	WRT2 = OFF, Block 2 (008000-00BFFFh) not write-protected
  3620                           ;	Write Protection Block 3
  3621                           ;	WRT3 = OFF, Block 3 (00C000h-00FFFFh) not write-protected
  3622   30000A                     	org	3145738
  3623   30000A  0F                 	db	15
  3624                           
  3625                           ;Config register CONFIG6H @ 0x30000B
  3626                           ;	Configuration Register Write Protection bit
  3627                           ;	WRTC = OFF, Configuration registers (300000-3000FFh) not write-protected
  3628                           ;	Boot Block Write Protection bit
  3629                           ;	WRTB = OFF, Boot Block (000000-0007FFh) not write-protected
  3630                           ;	Data EEPROM Write Protection bit
  3631                           ;	WRTD = OFF, Data EEPROM not write-protected
  3632   30000B                     	org	3145739
  3633   30000B  E0                 	db	224
  3634                           
  3635                           ;Config register CONFIG7L @ 0x30000C
  3636                           ;	Table Read Protection Block 0
  3637                           ;	EBTR0 = OFF, Block 0 (000800-003FFFh) not protected from table reads executed in other
      +                           blocks
  3638                           ;	Table Read Protection Block 1
  3639                           ;	EBTR1 = OFF, Block 1 (004000-007FFFh) not protected from table reads executed in other
      +                           blocks
  3640                           ;	Table Read Protection Block 2
  3641                           ;	EBTR2 = OFF, Block 2 (008000-00BFFFh) not protected from table reads executed in other
      +                           blocks
  3642                           ;	Table Read Protection Block 3
  3643                           ;	EBTR3 = OFF, Block 3 (00C000-00FFFFh) not protected from table reads executed in other
      +                           blocks
  3644   30000C                     	org	3145740
  3645   30000C  0F                 	db	15
  3646                           
  3647                           ;Config register CONFIG7H @ 0x30000D
  3648                           ;	Boot Block Table Read Protection bit
  3649                           ;	EBTRB = OFF, Boot Block (000000-0007FFh) not protected from table reads executed in ot
      +                          her blocks
  3650   30000D                     	org	3145741
  3651   30000D  40                 	db	64
  3652                           tosu	equ	0xFFF
  3653                           tosh	equ	0xFFE
  3654                           tosl	equ	0xFFD
  3655                           stkptr	equ	0xFFC
  3656                           pclatu	equ	0xFFB
  3657                           pclath	equ	0xFFA
  3658                           pcl	equ	0xFF9
  3659                           tblptru	equ	0xFF8
  3660                           tblptrh	equ	0xFF7
  3661                           tblptrl	equ	0xFF6
  3662                           tablat	equ	0xFF5
  3663                           prodh	equ	0xFF4
  3664                           prodl	equ	0xFF3
  3665                           indf0	equ	0xFEF
  3666                           postinc0	equ	0xFEE
  3667                           postdec0	equ	0xFED
  3668                           preinc0	equ	0xFEC
  3669                           plusw0	equ	0xFEB
  3670                           fsr0h	equ	0xFEA
  3671                           fsr0l	equ	0xFE9
  3672                           wreg	equ	0xFE8
  3673                           indf1	equ	0xFE7
  3674                           postinc1	equ	0xFE6
  3675                           postdec1	equ	0xFE5
  3676                           preinc1	equ	0xFE4
  3677                           plusw1	equ	0xFE3
  3678                           fsr1h	equ	0xFE2
  3679                           fsr1l	equ	0xFE1
  3680                           bsr	equ	0xFE0
  3681                           indf2	equ	0xFDF
  3682                           postinc2	equ	0xFDE
  3683                           postdec2	equ	0xFDD
  3684                           preinc2	equ	0xFDC
  3685                           plusw2	equ	0xFDB
  3686                           fsr2h	equ	0xFDA
  3687                           fsr2l	equ	0xFD9
  3688                           status	equ	0xFD8

Data Sizes:
    Strings     0
    Constant    86
    Data        0
    BSS         52
    Persistent  0
    Stack       0

Auto Spaces:
    Space          Size  Autos    Used
    COMRAM           94     23      75
    BANK0           160     12      12
    BANK1           256      0       0
    BANK2           256      0       0
    BANK3           256      0       0
    BANK4           256      0       0
    BANK5           256      0       0
    BANK6           256      0       0
    BANK7           256      0       0
    BANK8           256      0       0
    BANK9           256      0       0
    BANK10          256      0       0
    BANK11          256      0       0
    BANK12          256      0       0
    BANK13          256      0       0
    BANK14          256      0       0
    BANK15           96      0       0

Pointer List with Targets:

    S659$20$0	PTR FTN()void  size(2) Largest target is 1
		 -> EUSART_DefaultFramingErrorCallback(), 

    S659$21$0	PTR FTN()void  size(2) Largest target is 1
		 -> EUSART_DefaultOverrunErrorCallback(), 

    S1131$2$1	PTR unsigned char  size(2) Largest target is 0

    S1131$3$1	PTR unsigned char  size(2) Largest target is 3935
		 -> RAM(DATA[3935]), NULL(NULL[0]), 

    S1131$4$3	PTR unsigned char  size(2) Largest target is 0

    S1131$4$1	PTR unsigned char  size(2) Largest target is 0

    S1131$8$0	PTR FTN()void  size(2) Largest target is 1
		 -> I2C1_DefaultCallback(), 

    I2C1_Callback	PTR FTN()void  size(2) Largest target is 1
		 -> I2C1_DefaultCallback(), NULL(), 

    I2C1_CallbackRegister@callbackHandler	PTR FTN()void  size(2) Largest target is 1
		 -> I2C1_DefaultCallback(), 

    I2C1_Read@data	PTR unsigned char  size(2) Largest target is 3935
		 -> RAM(DATA[3935]), NULL(NULL[0]), 

    i2c1_eventTable	const PTR FTN()enum E3052[9] size(2) Largest target is 1
		 -> I2C1_EVENT_RESET(), I2C1_EVENT_STOP(), I2C1_EVENT_ERROR(), I2C1_EVENT_NACK(), 
		 -> I2C1_EVENT_RX(), I2C1_EVENT_TX(), I2C1_EVENT_SEND_WR_ADDR(), I2C1_EVENT_SEND_RD_ADDR(), 
		 -> I2C1_EVENT_IDLE(), 

    S1227$readPtr	PTR unsigned char  size(2) Largest target is 3935
		 -> RAM(DATA[3935]), NULL(NULL[0]), 

    i2c1Status.readPtr	PTR unsigned char  size(2) Largest target is 3935
		 -> RAM(DATA[3935]), NULL(NULL[0]), 

    S1227$writePtr	PTR unsigned char  size(2) Largest target is 0
		 -> NULL(NULL[0]), 

    i2c1Status.writePtr	PTR unsigned char  size(2) Largest target is 0
		 -> NULL(NULL[0]), 

    S1131$Tasks	PTR FTN()void  size(2) Largest target is 1
		 -> NULL(), 

    I2C1_Host.Tasks	PTR FTN()void  size(2) Largest target is 1
		 -> NULL(), 

    S1131$CallbackRegister	PTR FTN(PTR FTN()void ,)void  size(2) Largest target is 1
		 -> I2C1_CallbackRegister(), 

    I2C1_Host.CallbackRegister	PTR FTN(PTR FTN()void ,)void  size(2) Largest target is 1
		 -> I2C1_CallbackRegister(), 

    S1131$IsBusy	PTR FTN()_Bool  size(2) Largest target is 1
		 -> I2C1_IsBusy(), 

    I2C1_Host.IsBusy	PTR FTN()_Bool  size(2) Largest target is 1
		 -> I2C1_IsBusy(), 

    S1131$ErrorGet	PTR FTN()enum E3043 size(2) Largest target is 1
		 -> I2C1_ErrorGet(), 

    I2C1_Host.ErrorGet	PTR FTN()enum E3043 size(2) Largest target is 1
		 -> I2C1_ErrorGet(), 

    S1131$TransferSetup	PTR FTN(PTR struct .,unsigned long ,)_Bool  size(2) Largest target is 1
		 -> NULL(), 

    I2C1_Host.TransferSetup	PTR FTN(PTR struct .,unsigned long ,)_Bool  size(2) Largest target is 1
		 -> NULL(), 

    S1131$WriteRead	PTR FTN(unsigned short ,PTR unsigned char ,unsigned int ,PTR unsigned char ,unsigned int ,)_Bool  size(2) Largest target is 1
		 -> I2C1_WriteRead(), 

    I2C1_Host.WriteRead	PTR FTN(unsigned short ,PTR unsigned char ,unsigned int ,PTR unsigned char ,unsigned int ,)_Bool  size(2) Largest target is 1
		 -> I2C1_WriteRead(), 

    S1131$Read	PTR FTN(unsigned short ,PTR unsigned char ,unsigned int ,)_Bool  size(2) Largest target is 1
		 -> I2C1_Read(), 

    I2C1_Host.Read	PTR FTN(unsigned short ,PTR unsigned char ,unsigned int ,)_Bool  size(2) Largest target is 1
		 -> I2C1_Read(), 

    S1131$Write	PTR FTN(unsigned short ,PTR unsigned char ,unsigned int ,)_Bool  size(2) Largest target is 1
		 -> I2C1_Write(), 

    I2C1_Host.Write	PTR FTN(unsigned short ,PTR unsigned char ,unsigned int ,)_Bool  size(2) Largest target is 1
		 -> I2C1_Write(), 

    S1131$Deinitialize	PTR FTN()void  size(2) Largest target is 1
		 -> I2C1_Deinitialize(), 

    I2C1_Host.Deinitialize	PTR FTN()void  size(2) Largest target is 1
		 -> I2C1_Deinitialize(), 

    S1131$Initialize	PTR FTN()void  size(2) Largest target is 1
		 -> I2C1_Initialize(), 

    I2C1_Host.Initialize	PTR FTN()void  size(2) Largest target is 1
		 -> I2C1_Initialize(), 

    EUSART_OverrunErrorCallbackRegister@callbackHandler	PTR FTN()void  size(2) Largest target is 1
		 -> EUSART_DefaultOverrunErrorCallback(), 

    EUSART_FramingErrorCallbackRegister@callbackHandler	PTR FTN()void  size(2) Largest target is 1
		 -> EUSART_DefaultFramingErrorCallback(), 

    EUSART_FramingErrorHandler	PTR FTN()void  size(2) Largest target is 1
		 -> EUSART_DefaultFramingErrorCallback(), NULL(), 

    EUSART_OverrunErrorHandler	PTR FTN()void  size(2) Largest target is 1
		 -> EUSART_DefaultOverrunErrorCallback(), NULL(), 

    S659$EventCallbackRegister	PTR FTN(PTR FTN()void ,)void  size(2) Largest target is 1
		 -> NULL(), 

    UART1.EventCallbackRegister	PTR FTN(PTR FTN()void ,)void  size(2) Largest target is 1
		 -> NULL(), 

    S659$ParityErrorCallbackRegister	PTR FTN(PTR FTN()void ,)void  size(2) Largest target is 1
		 -> NULL(), 

    UART1.ParityErrorCallbackRegister	PTR FTN(PTR FTN()void ,)void  size(2) Largest target is 1
		 -> NULL(), 

    S659$OverrunErrorCallbackRegister	PTR FTN(PTR FTN()void ,)void  size(2) Largest target is 1
		 -> EUSART_OverrunErrorCallbackRegister(), 

    UART1.OverrunErrorCallbackRegister	PTR FTN(PTR FTN()void ,)void  size(2) Largest target is 1
		 -> EUSART_OverrunErrorCallbackRegister(), 

    S659$FramingErrorCallbackRegister	PTR FTN(PTR FTN()void ,)void  size(2) Largest target is 1
		 -> EUSART_FramingErrorCallbackRegister(), 

    UART1.FramingErrorCallbackRegister	PTR FTN(PTR FTN()void ,)void  size(2) Largest target is 1
		 -> EUSART_FramingErrorCallbackRegister(), 

    S659$TxCollisionCallbackRegister	PTR FTN(PTR FTN()void ,)void  size(2) Largest target is 1
		 -> NULL(), 

    UART1.TxCollisionCallbackRegister	PTR FTN(PTR FTN()void ,)void  size(2) Largest target is 1
		 -> NULL(), 

    S659$RxCompleteCallbackRegister	PTR FTN(PTR FTN()void ,)void  size(2) Largest target is 1
		 -> NULL(), 

    UART1.RxCompleteCallbackRegister	PTR FTN(PTR FTN()void ,)void  size(2) Largest target is 1
		 -> NULL(), 

    S659$TxCompleteCallbackRegister	PTR FTN(PTR FTN()void ,)void  size(2) Largest target is 1
		 -> NULL(), 

    UART1.TxCompleteCallbackRegister	PTR FTN(PTR FTN()void ,)void  size(2) Largest target is 1
		 -> NULL(), 

    S659$ErrorGet	PTR FTN()unsigned int  size(2) Largest target is 2
		 -> EUSART_ErrorGet(), 

    UART1.ErrorGet	PTR FTN()unsigned int  size(2) Largest target is 2
		 -> EUSART_ErrorGet(), 

    S659$BaudRateGet	PTR FTN()unsigned long  size(2) Largest target is 1
		 -> NULL(), 

    UART1.BaudRateGet	PTR FTN()unsigned long  size(2) Largest target is 1
		 -> NULL(), 

    S659$BaudRateSet	PTR FTN(unsigned long ,)void  size(2) Largest target is 1
		 -> NULL(), 

    UART1.BaudRateSet	PTR FTN(unsigned long ,)void  size(2) Largest target is 1
		 -> NULL(), 

    S659$BRGCountGet	PTR FTN()unsigned long  size(2) Largest target is 1
		 -> NULL(), 

    UART1.BRGCountGet	PTR FTN()unsigned long  size(2) Largest target is 1
		 -> NULL(), 

    S659$BRGCountSet	PTR FTN(unsigned long ,)void  size(2) Largest target is 1
		 -> NULL(), 

    UART1.BRGCountSet	PTR FTN(unsigned long ,)void  size(2) Largest target is 1
		 -> NULL(), 

    S659$AutoBaudEventEnableGet	PTR FTN()_Bool  size(2) Largest target is 1
		 -> NULL(), 

    UART1.AutoBaudEventEnableGet	PTR FTN()_Bool  size(2) Largest target is 1
		 -> NULL(), 

    S659$AutoBaudQuery	PTR FTN()_Bool  size(2) Largest target is 1
		 -> EUSART_AutoBaudQuery(), 

    UART1.AutoBaudQuery	PTR FTN()_Bool  size(2) Largest target is 1
		 -> EUSART_AutoBaudQuery(), 

    S659$AutoBaudSet	PTR FTN(_Bool ,)void  size(2) Largest target is 1
		 -> EUSART_AutoBaudSet(), 

    UART1.AutoBaudSet	PTR FTN(_Bool ,)void  size(2) Largest target is 1
		 -> EUSART_AutoBaudSet(), 

    S659$TransmitDisable	PTR FTN()void  size(2) Largest target is 1
		 -> EUSART_TransmitDisable(), 

    UART1.TransmitDisable	PTR FTN()void  size(2) Largest target is 1
		 -> EUSART_TransmitDisable(), 

    S659$TransmitEnable	PTR FTN()void  size(2) Largest target is 1
		 -> EUSART_TransmitEnable(), 

    UART1.TransmitEnable	PTR FTN()void  size(2) Largest target is 1
		 -> EUSART_TransmitEnable(), 

    S659$IsTxDone	PTR FTN()_Bool  size(2) Largest target is 1
		 -> EUSART_IsTxDone(), 

    UART1.IsTxDone	PTR FTN()_Bool  size(2) Largest target is 1
		 -> EUSART_IsTxDone(), 

    S659$IsTxReady	PTR FTN()_Bool  size(2) Largest target is 1
		 -> EUSART_IsTxReady(), 

    UART1.IsTxReady	PTR FTN()_Bool  size(2) Largest target is 1
		 -> EUSART_IsTxReady(), 

    S659$IsRxReady	PTR FTN()_Bool  size(2) Largest target is 1
		 -> EUSART_IsRxReady(), 

    UART1.IsRxReady	PTR FTN()_Bool  size(2) Largest target is 1
		 -> EUSART_IsRxReady(), 

    S659$Write	PTR FTN(unsigned char ,)void  size(2) Largest target is 1
		 -> EUSART_Write(), 

    UART1.Write	PTR FTN(unsigned char ,)void  size(2) Largest target is 1
		 -> EUSART_Write(), 

    S659$Read	PTR FTN()unsigned char  size(2) Largest target is 1
		 -> EUSART_Read(), 

    UART1.Read	PTR FTN()unsigned char  size(2) Largest target is 1
		 -> EUSART_Read(), 

    S659$Deinitialize	PTR FTN()void  size(2) Largest target is 1
		 -> EUSART_Deinitialize(), 

    UART1.Deinitialize	PTR FTN()void  size(2) Largest target is 1
		 -> EUSART_Deinitialize(), 

    S659$Initialize	PTR FTN()void  size(2) Largest target is 1
		 -> EUSART_Initialize(), 

    UART1.Initialize	PTR FTN()void  size(2) Largest target is 1
		 -> EUSART_Initialize(), 

    INT2_SetInterruptHandler@InterruptHandler	PTR FTN()void  size(2) Largest target is 1
		 -> INT2_DefaultInterruptHandler(), 

    INT2_InterruptHandler	PTR FTN()void  size(2) Largest target is 1
		 -> NULL(), INT2_DefaultInterruptHandler(), 

    INT1_SetInterruptHandler@InterruptHandler	PTR FTN()void  size(2) Largest target is 1
		 -> INT1_DefaultInterruptHandler(), 

    INT1_InterruptHandler	PTR FTN()void  size(2) Largest target is 1
		 -> NULL(), INT1_DefaultInterruptHandler(), 

    INT0_SetInterruptHandler@InterruptHandler	PTR FTN()void  size(2) Largest target is 1
		 -> INT0_DefaultInterruptHandler(), 

    INT0_InterruptHandler	PTR FTN()void  size(2) Largest target is 1
		 -> NULL(), INT0_DefaultInterruptHandler(), 


Critical Paths under _main in COMRAM

    _main->_RealTimeDS1307_Gen_Data
    _INTERRUPT_Initialize->_INT0_SetInterruptHandler
    _INTERRUPT_Initialize->_INT1_SetInterruptHandler
    _INTERRUPT_Initialize->_INT2_SetInterruptHandler
    _I2C1_Initialize->_I2C1_CallbackRegister
    _EUSART_Initialize->_EUSART_FramingErrorCallbackRegister
    _EUSART_Initialize->_EUSART_OverrunErrorCallbackRegister
    _RealTimeDS1307_Gen_Data->_I2C1_Read
    _I2C1_Read->_I2C1_IsBusy

Critical Paths under _INTERRUPT_InterruptManager in COMRAM

    _I2C1_ISR->_I2C1_EventHandler
    _I2C1_EventHandler->_I2C1_EVENT_TX
    _I2C1_ERROR_ISR->_I2C1_ErrorEventHandler
    _I2C1_ErrorEventHandler->_I2C1_EVENT_TX
    _I2C1_EVENT_TX->_I2C1_DataTransmit
    _I2C1_EVENT_SEND_WR_ADDR->_I2C1_DataTransmit

Critical Paths under _main in BANK0

    _main->_RealTimeDS1307_Gen_Data

Critical Paths under _INTERRUPT_InterruptManager in BANK0

    None.

Critical Paths under _main in BANK1

    None.

Critical Paths under _INTERRUPT_InterruptManager in BANK1

    None.

Critical Paths under _main in BANK2

    None.

Critical Paths under _INTERRUPT_InterruptManager in BANK2

    None.

Critical Paths under _main in BANK3

    None.

Critical Paths under _INTERRUPT_InterruptManager in BANK3

    None.

Critical Paths under _main in BANK4

    None.

Critical Paths under _INTERRUPT_InterruptManager in BANK4

    None.

Critical Paths under _main in BANK5

    None.

Critical Paths under _INTERRUPT_InterruptManager in BANK5

    None.

Critical Paths under _main in BANK6

    None.

Critical Paths under _INTERRUPT_InterruptManager in BANK6

    None.

Critical Paths under _main in BANK7

    None.

Critical Paths under _INTERRUPT_InterruptManager in BANK7

    None.

Critical Paths under _main in BANK8

    None.

Critical Paths under _INTERRUPT_InterruptManager in BANK8

    None.

Critical Paths under _main in BANK9

    None.

Critical Paths under _INTERRUPT_InterruptManager in BANK9

    None.

Critical Paths under _main in BANK10

    None.

Critical Paths under _INTERRUPT_InterruptManager in BANK10

    None.

Critical Paths under _main in BANK11

    None.

Critical Paths under _INTERRUPT_InterruptManager in BANK11

    None.

Critical Paths under _main in BANK12

    None.

Critical Paths under _INTERRUPT_InterruptManager in BANK12

    None.

Critical Paths under _main in BANK13

    None.

Critical Paths under _INTERRUPT_InterruptManager in BANK13

    None.

Critical Paths under _main in BANK14

    None.

Critical Paths under _INTERRUPT_InterruptManager in BANK14

    None.

Critical Paths under _main in BANK15

    None.

Critical Paths under _INTERRUPT_InterruptManager in BANK15

    None.

Call Graph Tables:

 ---------------------------------------------------------------------------------
 (Depth) Function   	        Calls       Base Space   Used Autos Params    Refs
 ---------------------------------------------------------------------------------
 (0) _main                                                 0     0      0    2212
            _RealTimeDS1307_Gen_Data
                  _SYSTEM_Initialize
 ---------------------------------------------------------------------------------
 (1) _SYSTEM_Initialize                                    0     0      0     730
                   _CLOCK_Initialize
                  _EUSART_Initialize
                    _I2C1_Initialize
               _INTERRUPT_Initialize
             _PIN_MANAGER_Initialize
 ---------------------------------------------------------------------------------
 (2) _PIN_MANAGER_Initialize                               0     0      0       0
 ---------------------------------------------------------------------------------
 (2) _INTERRUPT_Initialize                                 0     0      0     294
           _INT0_SetInterruptHandler
           _INT1_SetInterruptHandler
           _INT2_SetInterruptHandler
 ---------------------------------------------------------------------------------
 (3) _INT2_SetInterruptHandler                             2     0      2      98
                                             14 COMRAM     2     0      2
 ---------------------------------------------------------------------------------
 (3) _INT1_SetInterruptHandler                             2     0      2      98
                                             14 COMRAM     2     0      2
 ---------------------------------------------------------------------------------
 (3) _INT0_SetInterruptHandler                             2     0      2      98
                                             14 COMRAM     2     0      2
 ---------------------------------------------------------------------------------
 (2) _I2C1_Initialize                                      0     0      0     196
              _I2C1_CallbackRegister
              _I2C1_InterruptsEnable
 ---------------------------------------------------------------------------------
 (3) _I2C1_InterruptsEnable                                0     0      0       0
 ---------------------------------------------------------------------------------
 (3) _I2C1_CallbackRegister                                2     0      2     196
                                             14 COMRAM     2     0      2
 ---------------------------------------------------------------------------------
 (2) _EUSART_Initialize                                    0     0      0     240
_EUSART_FramingErrorCallbackRegister
_EUSART_OverrunErrorCallbackRegister
 ---------------------------------------------------------------------------------
 (3) _EUSART_OverrunErrorCallbackRegister                  2     0      2     120
                                             14 COMRAM     2     0      2
 ---------------------------------------------------------------------------------
 (3) _EUSART_FramingErrorCallbackRegister                  2     0      2     120
                                             14 COMRAM     2     0      2
 ---------------------------------------------------------------------------------
 (2) _CLOCK_Initialize                                     0     0      0       0
 ---------------------------------------------------------------------------------
 (1) _RealTimeDS1307_Gen_Data                             13     1     12    1482
                                             22 COMRAM     1     1      0
                                              0 BANK0     12     0     12
                          _I2C1_Read
 ---------------------------------------------------------------------------------
 (2) _I2C1_Read                                            7     1      6    1482
                                             15 COMRAM     7     1      6
                        _I2C1_IsBusy
                     _I2C1_ReadStart
 ---------------------------------------------------------------------------------
 (3) _I2C1_ReadStart                                       0     0      0       0
                     _I2C1_StartSend
 ---------------------------------------------------------------------------------
 (4) _I2C1_StartSend                                       0     0      0       0
 ---------------------------------------------------------------------------------
 (3) _I2C1_IsBusy                                          1     1      0      24
                                             14 COMRAM     1     1      0
 ---------------------------------------------------------------------------------
 Estimated maximum stack depth 4
 ---------------------------------------------------------------------------------
 (Depth) Function   	        Calls       Base Space   Used Autos Params    Refs
 ---------------------------------------------------------------------------------
 (5) _INTERRUPT_InterruptManager                          10    10      0     210
                                              4 COMRAM    10    10      0
                     _I2C1_ERROR_ISR
                           _I2C1_ISR
 ---------------------------------------------------------------------------------
 (6) _I2C1_ISR                                             0     0      0     105
                  _I2C1_EventHandler
 ---------------------------------------------------------------------------------
 (7) _I2C1_EventHandler                                    2     2      0     105
                                              2 COMRAM     2     2      0
                   _I2C1_EVENT_ERROR *
                    _I2C1_EVENT_IDLE *
                    _I2C1_EVENT_NACK *
                   _I2C1_EVENT_RESET *
                      _I2C1_EVENT_RX *
            _I2C1_EVENT_SEND_RD_ADDR *
            _I2C1_EVENT_SEND_WR_ADDR *
                    _I2C1_EVENT_STOP *
                      _I2C1_EVENT_TX *
                _I2C1_InterruptClear
                        _I2C1_IsAddr
                        _I2C1_IsData
                        _I2C1_IsNack
 ---------------------------------------------------------------------------------
 (8) _I2C1_IsNack                                          0     0      0       0
 ---------------------------------------------------------------------------------
 (8) _I2C1_IsData                                          0     0      0       0
 ---------------------------------------------------------------------------------
 (8) _I2C1_IsAddr                                          0     0      0       0
 ---------------------------------------------------------------------------------
 (6) _I2C1_ERROR_ISR                                       0     0      0     105
             _I2C1_ErrorEventHandler
 ---------------------------------------------------------------------------------
 (7) _I2C1_ErrorEventHandler                               2     2      0     105
                                              2 COMRAM     2     2      0
                                NULL *
               _I2C1_DefaultCallback *
                   _I2C1_EVENT_ERROR *
                    _I2C1_EVENT_IDLE *
                    _I2C1_EVENT_NACK *
                   _I2C1_EVENT_RESET *
                      _I2C1_EVENT_RX *
            _I2C1_EVENT_SEND_RD_ADDR *
            _I2C1_EVENT_SEND_WR_ADDR *
                    _I2C1_EVENT_STOP *
                      _I2C1_EVENT_TX *
           _I2C1_ErrorInterruptClear
 ---------------------------------------------------------------------------------
 (8) _I2C1_EVENT_TX                                        1     1      0      30
                                              1 COMRAM     1     1      0
                  _I2C1_DataTransmit
                    _I2C1_EVENT_STOP
                 _I2C1_RestartEnable
 ---------------------------------------------------------------------------------
 (9) _I2C1_RestartEnable                                   0     0      0       0
 ---------------------------------------------------------------------------------
 (8) _I2C1_EVENT_SEND_WR_ADDR                              0     0      0      15
                  _I2C1_DataTransmit
 ---------------------------------------------------------------------------------
 (8) _I2C1_EVENT_SEND_RD_ADDR                              0     0      0      15
                  _I2C1_DataTransmit
 ---------------------------------------------------------------------------------
 (9) _I2C1_DataTransmit                                    1     1      0      15
                                              0 COMRAM     1     1      0
 ---------------------------------------------------------------------------------
 (8) _I2C1_EVENT_RX                                        1     1      0      15
                                              0 COMRAM     1     1      0
                       _I2C1_AckSend
                   _I2C1_DataReceive
                   _I2C1_IsRxBufFull
                      _I2C1_NackSend
                 _I2C1_ReceiveEnable
                _I2C1_RestartDisable
 ---------------------------------------------------------------------------------
 (9) _I2C1_RestartDisable                                  0     0      0       0
 ---------------------------------------------------------------------------------
 (9) _I2C1_ReceiveEnable                                   0     0      0       0
 ---------------------------------------------------------------------------------
 (9) _I2C1_NackSend                                        0     0      0       0
 ---------------------------------------------------------------------------------
 (9) _I2C1_IsRxBufFull                                     0     0      0       0
 ---------------------------------------------------------------------------------
 (9) _I2C1_DataReceive                                     0     0      0       0
 ---------------------------------------------------------------------------------
 (9) _I2C1_AckSend                                         0     0      0       0
 ---------------------------------------------------------------------------------
 (8) _I2C1_EVENT_NACK                                      1     1      0      15
                                              0 COMRAM     1     1      0
                    _I2C1_EVENT_STOP
 ---------------------------------------------------------------------------------
 (9) _I2C1_EVENT_STOP                                      0     0      0       0
                         _I2C1_Close
                      _I2C1_StopSend
 ---------------------------------------------------------------------------------
 (10) _I2C1_StopSend                                       0     0      0       0
 ---------------------------------------------------------------------------------
 (10) _I2C1_Close                                          0     0      0       0
           _I2C1_ErrorInterruptClear
                _I2C1_InterruptClear
              _I2C1_StatusFlagsClear
 ---------------------------------------------------------------------------------
 (11) _I2C1_StatusFlagsClear                               0     0      0       0
 ---------------------------------------------------------------------------------
 (8) _I2C1_InterruptClear                                  0     0      0       0
 ---------------------------------------------------------------------------------
 (11) _I2C1_ErrorInterruptClear                            0     0      0       0
 ---------------------------------------------------------------------------------
 (8) _I2C1_EVENT_IDLE                                      0     0      0       0
 ---------------------------------------------------------------------------------
 (8) _I2C1_EVENT_ERROR                                     1     1      0      15
                                              0 COMRAM     1     1      0
                   _I2C1_EVENT_RESET
 ---------------------------------------------------------------------------------
 (8) _I2C1_EVENT_RESET                                     0     0      0       0
                      _I2C1_BusReset
 ---------------------------------------------------------------------------------
 (9) _I2C1_BusReset                                        0     0      0       0
 ---------------------------------------------------------------------------------
 (8) _I2C1_DefaultCallback                                 0     0      0       0
 ---------------------------------------------------------------------------------
 (8) NULL(Fake)                                            0     0      0       0
 ---------------------------------------------------------------------------------
 Estimated maximum stack depth 11
 ---------------------------------------------------------------------------------

 Call Graph Graphs:

 _main (ROOT)
   _RealTimeDS1307_Gen_Data
     _I2C1_Read
       _I2C1_IsBusy
       _I2C1_ReadStart
         _I2C1_StartSend
   _SYSTEM_Initialize
     _CLOCK_Initialize
     _EUSART_Initialize
       _EUSART_FramingErrorCallbackRegister
       _EUSART_OverrunErrorCallbackRegister
     _I2C1_Initialize
       _I2C1_CallbackRegister
       _I2C1_InterruptsEnable
     _INTERRUPT_Initialize
       _INT0_SetInterruptHandler
       _INT1_SetInterruptHandler
       _INT2_SetInterruptHandler
     _PIN_MANAGER_Initialize

 _INTERRUPT_InterruptManager (ROOT)
   _I2C1_ERROR_ISR
     _I2C1_ErrorEventHandler
       NULL(Fake) *
       _I2C1_DefaultCallback *
       _I2C1_EVENT_ERROR *
         _I2C1_EVENT_RESET
           _I2C1_BusReset
       _I2C1_EVENT_IDLE *
       _I2C1_EVENT_NACK *
         _I2C1_EVENT_STOP
           _I2C1_Close
             _I2C1_ErrorInterruptClear
             _I2C1_InterruptClear
             _I2C1_StatusFlagsClear
           _I2C1_StopSend
       _I2C1_EVENT_RESET *
       _I2C1_EVENT_RX *
         _I2C1_AckSend
         _I2C1_DataReceive
         _I2C1_IsRxBufFull
         _I2C1_NackSend
         _I2C1_ReceiveEnable
         _I2C1_RestartDisable
       _I2C1_EVENT_SEND_RD_ADDR *
         _I2C1_DataTransmit
       _I2C1_EVENT_SEND_WR_ADDR *
         _I2C1_DataTransmit
       _I2C1_EVENT_STOP *
       _I2C1_EVENT_TX *
         _I2C1_DataTransmit
         _I2C1_EVENT_STOP
         _I2C1_RestartEnable
       _I2C1_ErrorInterruptClear *
   _I2C1_ISR
     _I2C1_EventHandler
       _I2C1_EVENT_ERROR *
       _I2C1_EVENT_IDLE *
       _I2C1_EVENT_NACK *
       _I2C1_EVENT_RESET *
       _I2C1_EVENT_RX *
       _I2C1_EVENT_SEND_RD_ADDR *
       _I2C1_EVENT_SEND_WR_ADDR *
       _I2C1_EVENT_STOP *
       _I2C1_EVENT_TX *
       _I2C1_InterruptClear *
       _I2C1_IsAddr *
       _I2C1_IsData *
       _I2C1_IsNack *

 Address spaces:
Name               Size   Autos  Total    Cost      Usage
BIGRAM             F5F      0       0      51        0.0%
EEDATA             400      0       0       0        0.0%
BITBANK14          100      0       0      32        0.0%
BANK14             100      0       0      33        0.0%
BITBANK13          100      0       0      30        0.0%
BANK13             100      0       0      31        0.0%
BITBANK12          100      0       0      28        0.0%
BANK12             100      0       0      29        0.0%
BITBANK11          100      0       0      26        0.0%
BANK11             100      0       0      27        0.0%
BITBANK10          100      0       0      24        0.0%
BANK10             100      0       0      25        0.0%
BITBANK9           100      0       0      22        0.0%
BANK9              100      0       0      23        0.0%
BITBANK8           100      0       0      20        0.0%
BANK8              100      0       0      21        0.0%
BITBANK7           100      0       0      18        0.0%
BANK7              100      0       0      19        0.0%
BITBANK6           100      0       0      16        0.0%
BANK6              100      0       0      17        0.0%
BITBANK5           100      0       0      14        0.0%
BANK5              100      0       0      15        0.0%
BITBANK4           100      0       0      12        0.0%
BANK4              100      0       0      13        0.0%
BITBANK3           100      0       0      10        0.0%
BANK3              100      0       0      11        0.0%
BITBANK2           100      0       0       8        0.0%
BANK2              100      0       0       9        0.0%
BITBANK1           100      0       0       6        0.0%
BANK1              100      0       0       7        0.0%
BITBANK0            A0      0       0       4        0.0%
BANK0               A0      C       C       5        7.5%
BITBANK15           60      0       0      34        0.0%
BANK15              60      0       0      35        0.0%
BITCOMRAM           5E      0       0       0        0.0%
COMRAM              5E     17      4B       1       79.8%
BITBIGSFRhhlhh      1C      0       0      37        0.0%
BITBIGSFRlll        1C      0       0      49        0.0%
BITBIGSFRhhh         D      0       0      36        0.0%
BITBIGSFRhhllhh      C      0       0      40        0.0%
BITBIGSFRhhllhl      9      0       0      42        0.0%
BITBIGSFRlh          9      0       0      47        0.0%
BITBIGSFRhhllhl      7      0       0      41        0.0%
BITBIGSFRhhllhh      6      0       0      39        0.0%
BITBIGSFRhhllll      4      0       0      45        0.0%
BITBIGSFRhl          4      0       0      46        0.0%
BITBIGSFRhhlhl       2      0       0      38        0.0%
BITBIGSFRhhllll      1      0       0      44        0.0%
BITBIGSFRhhlllh      1      0       0      43        0.0%
BITBIGSFRllh         1      0       0      48        0.0%
BIGSFR               0      0       0     200        0.0%
BITSFR               0      0       0     200        0.0%
SFR                  0      0       0     200        0.0%
STACK                0      0       0       2        0.0%
NULL                 0      0       0       0        0.0%
ABS                  0      0      57      50        0.0%
DATA                 0      0      57       3        0.0%
CODE                 0      0       0       0        0.0%


Microchip Technology PIC18 Macro Assembler V2.41 build 20230208172133 
Symbol Table                                                                                   Thu Dec 14 22:07:53 2023

                            ??_I2C1_DefaultCallback 0035                                         _SSPSTATbits 0FC7  
                                                l13 152A                                                  l44 140E  
                                                l94 13DC              fp__EUSART_OverrunErrorCallbackRegister 0000  
       __end_of_EUSART_OverrunErrorCallbackRegister 14E4               ??_EUSART_OverrunErrorCallbackRegister 0045  
              ?_EUSART_OverrunErrorCallbackRegister 0043                 _EUSART_OverrunErrorCallbackRegister 14C8  
                                   ??_I2C1_NackSend 0035                                     ??_I2C1_BusReset 0035  
                                               l112 15C8                                                 l125 15BE  
                                               l304 14FE                                                 l138 15B4  
                                               l148 15D2                                                 l308 14E2  
                                               l229 13A8                                                 l425 1488  
                                               l436 1372                                                 l452 14C6  
                                               l461 15DC                                                 l447 1462  
                                               l448 1464                                                 l536 162E  
                                               l560 1606                                                 l579 1142  
                                               u500 14BE                                                 u501 14BA  
                                               u510 1450                                                 u511 144C  
                                               u520 145E                                                 u521 145A  
                                               u530 1334                                                 u531 1330  
                                               u480 14F6                                                 u481 14F2  
                                               u490 14DA                                                 u491 14D6  
                                               u581 113A                                                 u591 149C  
                        ??_INT0_SetInterruptHandler 0045                           __end_of_I2C1_DataTransmit 1602  
                                               tosl 0FFD                                                 wreg 0FE8  
                          _I2C1_ErrorInterruptClear 1648                                    __end_of_I2C1_ISR 160E  
                                              l1343 15D4                                                l1345 15D8  
                                              l1329 1602                                                l1443 15CA  
                                              l1451 1406                                                l1277 162C  
                                              l1453 140C                                                l1445 13DE  
                                              l1447 13F6                                                l1449 13FC  
                                              l1801 151E                                                l1731 14E4  
                                              l1803 1522                                                l1733 14F6  
                                              l1741 14BE                                                l1725 15C0  
                                              l1805 1526                                                l1743 143C  
                                              l1735 14C8                                                l1751 1374  
                                              l1727 15B6                                                l1745 1450  
                                              l1737 14DA                                                l1753 1388  
                                              l1761 147A                                                l1729 15AC  
                                              l1747 145E                                                l1755 1394  
                                              l1739 14AC                                                l1763 1486  
                                              l1771 13BE                                                l1781 1334  
                                              l1757 1466                                                l1773 13CC  
                                              l1765 13AA                                                l1791 1368  
                                              l1783 1338                                                l1871 1130  
                                              l1759 1476                                                l1775 13CE  
                                              l1767 13B0                                                l1793 136C  
                                              l1785 1344                                                l1777 131C  
                                              l1769 13BC                                                l1881 1492  
                                              l1787 134C                                                l1795 1370  
                                              l1779 1320                                                l1875 148A  
                                              l1789 1354                                                l1869 1058  
                                              l1877 148E                                                l1799 1516  
                                              l1879 1490                                   _I2C1_Deinitialize 0000  
                                              _IOCB 0F7D                                                _LATA 0F89  
                                              _LATB 0F8A                                                _LATC 0F8B  
                                              _LATD 0F8C                                                _LATE 0F8D  
                                              _WPUB 0F7C                                    ??_I2C1_ReadStart 0043  
                                   ??_I2C1_StopSend 0035                                                _main 148A  
                                              fsr2h 0FDA                                                indf2 0FDF  
                                              fsr2l 0FD9                                                btemp 004C  
                         ?_INT2_SetInterruptHandler 0043                                                prodh 0FF4  
                                              prodl 0FF3                                _Real_TimeDs1307_data 001B  
                                              start 00AC                  _EUSART_DefaultOverrunErrorCallback 0000  
                                      ___param_bank 0000                                     _I2C1_EVENT_IDLE 15F2  
                                   _I2C1_EVENT_NACK 15E8                                          _i2c1Status 0001  
                                   _I2C1_EVENT_STOP 1588                                   __end_of_I2C1_Read 1374  
                                 __end_of_I2C1_Host 1045                                               ?_main 0035  
                                             i2l102 0080                                               i2l503 125C  
                                             i2l512 1592                                               i2l521 1600  
                                             i2l530 1632                                               i2l506 15F0  
                                             i2l515 1586                                               i2l524 162A  
                                             i2l533 1636                                               i2l509 15E6  
                                             i2l542 161E                                               i2l518 163E  
                                             i2l527 163A                                               i2l551 1552  
                                             i2l455 160C                                               i2l545 1618  
                                             i2l473 11E8                                               i2l482 15F8  
                                             i2l458 1612                                               i2l554 1566  
                                             i2l467 143A                                               i2l539 1642  
                                             i2l572 1624                                               i2l476 12BE  
                                             i2l548 153E                                               i2l557 157A  
                                             i2l485 15AA                                               i2l566 1646  
                                             i2l479 164C                                               i2l495 131A  
                                             i2l488 159E                                               i2l569 164A  
                                             _RCREG 0FAE                                               _RCSTA 0FAB  
                                             _UART1 1001                                               _SPBRG 0FAF  
                                             _TRISA 0F92                                               _TRISB 0F93  
                                             _TRISC 0F94                                               _TRISD 0F95  
                                             _TRISE 0F96                                               _TXREG 0FAD  
                                             _TXSTA 0FAC                                    ??_I2C1_StartSend 0043  
                          ?_I2C1_EVENT_SEND_RD_ADDR 0035                                   ??_I2C1_Initialize 0045  
                           ??_I2C1_CallbackRegister 0045                                   ?_I2C1_IsRxBufFull 0035  
                          ?_I2C1_EVENT_SEND_WR_ADDR 0035                            _INT1_SetInterruptHandler 15B6  
                                             pclath 0FFA                                               pclatu 0FFB  
                                             tablat 0FF5                               I2C1_DataTransmit@data 0035  
                                ??_I2C1_IsRxBufFull 0035                                               plusw0 0FEB  
                                             plusw2 0FDB                                               ttemp5 004D  
                                             ttemp6 0050                                               ttemp7 0054  
                                             status 0FD8                                               wtemp8 004D  
                           _RealTimeDS1307_Gen_Data 1058                                        ??_I2C1_Close 0035  
                                   __initialization 1500                            ??_I2C1_ErrorEventHandler 0037  
                                      __end_of_main 14AC                                    _I2C1_EVENT_ERROR 15DE  
                                  _I2C1_EVENT_RESET 157C                         ?_INTERRUPT_InterruptManager 0035  
                                            ??_main 004C                                       __activetblptr 0003  
              I2C1_CallbackRegister@callbackHandler 0043  EUSART_OverrunErrorCallbackRegister@callbackHandler 0043  
EUSART_FramingErrorCallbackRegister@callbackHandler 0043                                  __end_of_I2C1_Close 143C  
                        _EUSART_OverrunErrorHandler 0029                               _I2C1_InterruptsEnable 1602  
                                            _ANSELH 0F7F                                              i2l1301 1634  
                                            i2l1303 1614                                              i2l1311 1584  
                                            i2l1305 1638                                              i2l1401 11EA  
                                            i2l1411 1226                                              i2l1403 11EE  
                                            i2l1307 157C                                              i2l1261 1410  
                                            i2l1413 122C                                              i2l1405 1202  
                                            i2l1421 1256                                              i2l1309 1580  
                                            i2l1255 1644                                              i2l1271 1436  
                                            i2l1263 141A                                              i2l1423 125A  
                                            i2l1415 123E                                              i2l1407 1214  
                                            i2l1431 15EE                                              i2l1351 152C  
                                            i2l1511 117C                                              i2l1503 1144  
                                            i2l1257 1648                                              i2l1265 1422  
                                            i2l1273 1640                                              i2l1281 1630  
                                            i2l1361 15F6                                              i2l1417 1246  
                                            i2l1409 1222                                              i2l1521 1266  
                                            i2l1513 1190                                              i2l1505 1148  
                                            i2l1275 1626                                              i2l1259 1620  
                                            i2l1267 142E                                              i2l1291 1568  
                                            i2l1371 1594                                              i2l1419 124E  
                                            i2l1427 15E8                                              i2l1435 15DE  
                                            i2l1283 1588                                              i2l1523 126A  
                                            i2l1347 1554                                              i2l1355 1540  
                                            i2l1515 11A4                                              i2l1507 115C  
                                            i2l1269 1432                                              i2l1381 12D2  
                                            i2l1365 15A0                                              i2l1373 159C  
                                            i2l1429 15E8                                              i2l1437 15DE  
                                            i2l1285 158C                                              i2l1525 12A6  
                                            i2l1517 11AC                                              i2l1509 1170  
                                            i2l1295 163C                                              i2l1279 15FC  
                                            i2l1391 1306                                              i2l1383 12D8  
                                            i2l1359 15F2                                              i2l1367 15A8  
                                            i2l1439 15E4                                              i2l1287 1590  
                                            i2l1519 125E                                              i2l1535 160E  
                                            i2l1551 005C                                              i2l1393 130A  
                                            i2l1385 12EA                                              i2l1377 12C0  
                                            i2l1537 1608                                              i2l1553 0060  
                                            i2l1545 0032                                              i2l1299 161A  
                                            i2l1395 1312                                              i2l1387 12F2  
                                            i2l1379 12C0                                              i2l1555 006E  
                                            i2l1547 0040                                              i2l1389 1302  
                                            i2l1397 1318                                              i2l1557 007C  
                                            i2l1549 004E                                              _OSCCON 0FD3  
                                            _SPBRGH 0FB0                                              i2u1_40 1578  
                                            i2u1_41 1572                                              i2u1_46 157A  
                                            i2u7_40 1564                                              i2u7_41 155E  
                                            _SSPADD 0FC8                                              i2u8_40 1566  
                                            i2u9_40 153C                                              i2u9_41 1536  
                                            i2u9_46 153E                                              _SSPBUF 0FC9  
                           __end_of_I2C1_EVENT_IDLE 15FA                             __end_of_I2C1_EVENT_NACK 15F2  
                           __end_of_I2C1_EVENT_STOP 1594                         __end_of_I2C1_InterruptClear 1648  
                                _I2C1_RestartEnable 1630                                           ?_I2C1_ISR 0035  
                                            clear_0 1506                     __end_of_I2C1_EVENT_SEND_RD_ADDR 15AC  
                                            isa$std 0001                             fp__I2C1_DefaultCallback 0000  
                                 ?_CLOCK_Initialize 0035                        _INT2_DefaultInterruptHandler 0000  
                                ??_CLOCK_Initialize 0043                     __end_of_I2C1_EVENT_SEND_WR_ADDR 15A0  
                               ?_I2C1_RestartEnable 0035                                        __mediumconst 0000  
                                            tblptrh 0FF7                                              tblptrl 0FF6  
                                            tblptru 0FF8            INT2_SetInterruptHandler@InterruptHandler 0043  
          INT1_SetInterruptHandler@InterruptHandler 0043            INT0_SetInterruptHandler@InterruptHandler 0043  
                         ??_RealTimeDS1307_Gen_Data 004B                                   _SYSTEM_Initialize 1516  
                                        __accesstop 0060                             __end_of__initialization 150C  
                                     ??_I2C1_IsAddr 0035                                       ??_I2C1_IsData 0035  
                                     ??_I2C1_IsNack 0035                                       ??_I2C1_IsBusy 0043  
                                ?_SYSTEM_Initialize 0035                                       ___rparam_used 0001  
                              ??_I2C1_RestartEnable 0035                                       __end_of_UART1 1031  
                                    __pcstackCOMRAM 0035                                 ??_SYSTEM_Initialize 0045  
                        ??_I2C1_ErrorInterruptClear 0035                                          ??_I2C1_ISR 0039  
                  __end_of_INT2_SetInterruptHandler 15B6                               __end_of_I2C1_EVENT_RX 125E  
                             __end_of_I2C1_EVENT_TX 131C                              ?_I2C1_InterruptsEnable 0035  
                                 _I2C1_EventHandler 1144                           __end_of_SYSTEM_Initialize 152C  
                                ?_I2C1_EventHandler 0035                               _INT0_InterruptHandler 0033  
                             _I2C1_StatusFlagsClear 1620                                    ?_I2C1_EVENT_IDLE 0035  
                                  ?_I2C1_EVENT_NACK 0035                                    ?_I2C1_EVENT_STOP 0035  
                               ??_I2C1_EventHandler 0037                                 __end_of_I2C1_IsAddr 1568  
                               __end_of_I2C1_IsData 1554                                 __end_of_I2C1_IsNack 1540  
                               __end_of_I2C1_IsBusy 1466                                     _I2C1_Initialize 1466  
                              _EUSART_AutoBaudQuery 0000                                             _BAUDCON 0FB8  
                             __end_of_I2C1_NackSend 161A                               __end_of_I2C1_BusReset 162C  
                                   _EUSART_IsTxDone 0000                                 fp__I2C1_EVENT_ERROR 0000  
                               fp__I2C1_EVENT_RESET 0000                          ??_INT1_SetInterruptHandler 0045  
                                   _EUSART_ErrorGet 0000                                           _I2C1_Read 131C  
                                         _I2C1_Host 1031                           __end_of_I2C1_EventHandler 11EA  
                                           i2u10_40 1550                                             i2u10_41 154A  
                                           i2u10_46 1552                                             i2u11_40 12D2  
                                           i2u11_41 12CE                                             i2u12_40 1302  
                                           i2u20_40 11A4                                             i2u12_41 12FE  
                                           i2u20_41 11A0                                             i2u13_40 1202  
                                           i2u13_41 11FE                                             i2u14_40 1214  
                                           i2u21_48 11D4                                             i2u14_41 1210  
                                           i2u21_49 11E6                                             i2u15_40 123E  
                                           i2u22_48 1292                                             i2u15_41 123A  
                                           i2u22_49 12A4                                             i2u23_48 12AC  
                                           i2u23_49 12BE                                             i2u17_40 115C  
                                           i2u25_40 0040                                             i2u17_41 1158  
                                           i2u25_41 003C                                             i2u18_40 1170  
                                           i2u26_40 004E                                             i2u18_41 116C  
                                           i2u26_41 004A                                             i2u19_40 1190  
                                           i2u27_40 005C                                             i2u19_41 118C  
                                           i2u27_41 0058                                             i2u28_40 006E  
                                           i2u28_41 006A                                             i2u29_40 007C  
                                           i2u29_41 0078                              _I2C1_ErrorEventHandler 125E  
                                           _OSCTUNE 0F9B                                             _SSPCON1 0FC6  
                                           _SSPCON2 0FC5                                             _SSPSTAT 0FC7  
                          __end_of_I2C1_EVENT_ERROR 15E8                            __end_of_I2C1_EVENT_RESET 1588  
                     __end_of_I2C1_CallbackRegister 14C8                           ?_INT0_SetInterruptHandler 0043  
                             __end_of_I2C1_StopSend 1644                                             __Hparam 0000  
                                           __Lparam 0000                                        __psmallconst 1000  
                                           __pcinit 1500                                             __ramtop 1000  
                                           __ptext0 148A                                             __ptext1 1516  
                                           __ptext2 13DE                                             __ptext3 13AA  
                                           __ptext4 15AC                                             __ptext5 15B6  
                                           __ptext6 15C0                                             __ptext7 1466  
                                           __ptext8 1602                                             __ptext9 14AC  
                               _I2C1_RestartDisable 1634                            ??_PIN_MANAGER_Initialize 0043  
                                        ?_I2C1_Read 0044                                       ?_I2C1_AckSend 0035  
                                   _i2c1_eventTable 1045                                end_of_initialization 150C  
                          _INT2_SetInterruptHandler 15AC                              ?_I2C1_StatusFlagsClear 0035  
                                       _I2C1_IsAddr 1554                                         _I2C1_IsData 1540  
                                       _I2C1_IsNack 152C                                         _I2C1_IsBusy 143C  
                                 _EUSART_Initialize 1374                                ?_I2C1_RestartDisable 0035  
                                  I2C1_Read@address 0044                             __end_of_I2C1_Initialize 148A  
                                ?_EUSART_Initialize 0035                                           _RCSTAbits 0FAB  
                                           postinc0 0FEE                                    _I2C1_DataReceive 163C  
                               ??_EUSART_Initialize 0045                               _INT1_InterruptHandler 0031  
                                    ??_I2C1_AckSend 0035                                 _EUSART_Deinitialize 0000  
                         __end_of_EUSART_Initialize 13AA                                           _TXSTAbits 0FAC  
                             ??_I2C1_RestartDisable 0035                            fp__I2C1_CallbackRegister 0000  
                      __end_of_INTERRUPT_Initialize 13DE                                      _I2C1_ERROR_ISR 160E  
                      _INT0_DefaultInterruptHandler 0000                                         _BAUDCONbits 0FB8  
                        __end_of_I2C1_ReceiveEnable 163C                                        _EUSART_Write 0000  
                           __end_of_i2c1_eventTable 1057                             ??_I2C1_InterruptsEnable 0043  
                                  _I2C1_IsBusy$1709 0043                                 start_initialization 1500  
                                       ??_I2C1_Read 004A                             _I2C1_EVENT_SEND_RD_ADDR 15A0  
                        fp__I2C1_EVENT_SEND_RD_ADDR 0000                                    ?_I2C1_Initialize 0035  
                           _I2C1_EVENT_SEND_WR_ADDR 1594                          fp__I2C1_EVENT_SEND_WR_ADDR 0000  
                            __end_of_I2C1_ERROR_ISR 1614                          _EUSART_FramingErrorHandler 002B  
                                  _I2C1_IsRxBufFull 1568                             ?_I2C1_ErrorEventHandler 0035  
                                       __pbssCOMRAM 0001                    __end_of_INT0_SetInterruptHandler 15CA  
                                     __pcstackBANK0 0060                            ?_RealTimeDS1307_Gen_Data 0060  
                         ?_I2C1_ErrorInterruptClear 0035                        __end_of_I2C1_DefaultCallback 164E  
                                 ?_I2C1_EVENT_ERROR 0035                                   ?_I2C1_EVENT_RESET 0035  
                             _INT2_InterruptHandler 002F                                  ??_I2C1_EVENT_ERROR 0035  
                                ??_I2C1_EVENT_RESET 0035                                __end_of_I2C1_AckSend 1620  
                            _PIN_MANAGER_Initialize 13DE                                     ?_I2C1_ERROR_ISR 0035  
                                         __pintcode 0008                                      _I2C1_ReadStart 15D4  
                                  fp__I2C1_EVENT_RX 0000                                    fp__I2C1_EVENT_TX 0000  
                                      fp__I2C1_Read 0000                                  fp__I2C1_EVENT_IDLE 0000  
                                fp__I2C1_EVENT_NACK 0000                                  fp__I2C1_EVENT_STOP 0000  
                                          _I2C1_ISR 1608                                      fp__I2C1_IsBusy 0000  
                      ??_INTERRUPT_InterruptManager 0039                      __end_of_I2C1_ErrorEventHandler 12C0  
                                       __smallconst 1000                          ??_INT2_SetInterruptHandler 0045  
                            _EUSART_TransmitDisable 0000                                 I2C1_Read@dataLength 0048  
                     I2C1_EVENT_ERROR@retEventState 0035                             ??_I2C1_StatusFlagsClear 0035  
                          __end_of_I2C1_DataReceive 1640                           ??_I2C1_EVENT_SEND_RD_ADDR 0035  
                                  _EUSART_IsRxReady 0000                                _INTERRUPT_Initialize 13AA  
                                  _EUSART_IsTxReady 0000                                    _CLOCK_Initialize 15CA  
                                    _I2C1_StartSend 162C                                        ?_I2C1_IsAddr 0035  
                                      ?_I2C1_IsData 0035                                        ?_I2C1_IsNack 0035  
                         ??_I2C1_EVENT_SEND_WR_ADDR 0036                                        ?_I2C1_IsBusy 0035  
                             _I2C1_CallbackRegister 14AC                           ?_INT1_SetInterruptHandler 0043  
                                          _PIE1bits 0F9D                                            _PIE2bits 0FA0  
                                 _eusartRxLastError 002D                                          _I2C1_Close 1410  
                            __end_of_I2C1_ReadStart 15DE                                            _PIR1bits 0F9E  
                                          _PIR2bits 0FA1                                          _I2C1_Write 0000  
                                    _I2C1_WriteRead 0000                                            _RCONbits 0FD0  
                                   _Real_TimeDs1307 000F                     __end_of_RealTimeDS1307_Gen_Data 1144  
                      I2C1_EVENT_NACK@retEventState 0035                                       _I2C1_EVENT_RX 11EA  
                                     _I2C1_EVENT_TX 12C0                                         _EUSART_Read 0000  
                                       _INTCON2bits 0FF1                                         _INTCON3bits 0FF0  
                             ?_INTERRUPT_Initialize 0035                              __end_of_I2C1_StartSend 1630  
                          _INT0_SetInterruptHandler 15C0                                 _I2C1_InterruptClear 1644  
                                          __Hrparam 0000                                     ?_I2C1_ReadStart 0035  
                                          __Lrparam 0000                                       _I2C1_Callback 0027  
                              _I2C1_DefaultCallback 164C                                ?_I2C1_InterruptClear 0035  
                                     _I2C1_NackSend 1614                                       _I2C1_BusReset 1626  
                                 ??_I2C1_EVENT_IDLE 0035                                   ??_I2C1_EVENT_NACK 0035  
                                 ??_I2C1_EVENT_STOP 0035                       __end_of_I2C1_InterruptsEnable 1608  
                                    ?_I2C1_EVENT_RX 0035                                      ?_I2C1_EVENT_TX 0035  
                                     _I2C1_ErrorGet 0000                                  _EUSART_AutoBaudSet 0000  
                                          __ptext10 1374                                            __ptext11 14C8  
                                          __ptext20 1608                                            __ptext12 14E4  
                                          __ptext21 1144                                            __ptext13 15CA  
                                          __ptext30 15E8                                            __ptext22 152C  
                                          __ptext14 1058                                            __ptext31 11EA  
                                          __ptext23 1540                                            __ptext15 131C  
                                          __ptext40 1614                                            __ptext32 1594  
                                          __ptext24 1554                                            __ptext16 15D4  
                                          __ptext41 1568                                            __ptext33 15A0  
                                          __ptext25 160E                                            __ptext17 162C  
                                          __ptext50 164C                                            __ptext42 163C  
                                          __ptext34 15F2                                            __ptext26 125E  
                                          __ptext18 143C                                            __ptext51 0000  
                                          __ptext43 161A                                            __ptext35 12C0  
                                          __ptext27 157C                                            __ptext44 1640  
                                          __ptext36 1630                                            __ptext28 1588  
                                          __ptext45 1410                                            __ptext37 15FA  
                                          __ptext29 15DE                                            __ptext46 1620  
                                          __ptext38 1634                                            __ptext47 1644  
                                          __ptext39 1638                                            __ptext48 1648  
                                          __ptext49 1626                            __end_of_I2C1_IsRxBufFull 157C  
                       __end_of_I2C1_RestartDisable 1638                                  _I2C1_ReceiveEnable 1638  
                                   ?_I2C1_StartSend 0035                               _EUSART_TransmitEnable 0000  
                            ?_I2C1_CallbackRegister 0043                                 ?_I2C1_ReceiveEnable 0035  
                                       ?_I2C1_Close 0035                                       _I2C1_StopSend 1640  
                                          isa$xinst 0000                                            int$flags 004C  
                __end_of_INTERRUPT_InterruptManager 00AC                          _INTERRUPT_InterruptManager 0008  
            fp__EUSART_FramingErrorCallbackRegister 0000         __end_of_EUSART_FramingErrorCallbackRegister 1500  
             ??_EUSART_FramingErrorCallbackRegister 0045                ?_EUSART_FramingErrorCallbackRegister 0043  
               _EUSART_FramingErrorCallbackRegister 14E4                               ?_I2C1_DefaultCallback 0035  
                             ??_I2C1_InterruptClear 0035                    __end_of_I2C1_ErrorInterruptClear 164C  
                              fp__EUSART_Initialize 0000                        _INT1_DefaultInterruptHandler 0000  
                                    ?_I2C1_NackSend 0035                                      ?_I2C1_BusReset 0035  
                              ??_I2C1_ReceiveEnable 0035                                          _INTCONbits 0FF2  
                                      _I2C1_AckSend 161A                              ??_INTERRUPT_Initialize 0045  
                        I2C1_EVENT_RX@retEventState 0035                                            intlevel2 0000  
                                  ??_I2C1_ERROR_ISR 0039                                  I2C1_Read@retStatus 004A  
                           ?_PIN_MANAGER_Initialize 0035                          __end_of_I2C1_RestartEnable 1634  
                _EUSART_DefaultFramingErrorCallback 0000                                      ?_I2C1_StopSend 0035  
                                     I2C1_Read@data 0046                                  fp__I2C1_Initialize 0000  
                          __end_of_CLOCK_Initialize 15D4                                     ??_I2C1_EVENT_RX 0035  
                                   ??_I2C1_EVENT_TX 0036                    __end_of_INT1_SetInterruptHandler 15C0  
                                 _I2C1_DataTransmit 15FA                                         _SSPCON1bits 0FC6  
                                       _SSPCON2bits 0FC5                                  ?_I2C1_DataTransmit 0035  
                                 ?_I2C1_DataReceive 0035                      __end_of_PIN_MANAGER_Initialize 1410  
                     __end_of_I2C1_StatusFlagsClear 1626                                  ??_I2C1_DataReceive 0035  
                        I2C1_EVENT_TX@retEventState 0036                                 ??_I2C1_DataTransmit 0035  
